Archive member included because of file (symbol)

c:/program files (x86)/codesourcery/sourcery g++ lite/bin/../lib/gcc/arm-none-eabi/4.4.1/../../../../arm-none-eabi/lib/thumb2\libm.a(lib_a-s_ceil.o)
                              ..//PHY/config_data.o (ceil)
c:/program files (x86)/codesourcery/sourcery g++ lite/bin/../lib/gcc/arm-none-eabi/4.4.1/../../../../arm-none-eabi/lib/thumb2\libc.a(lib_a-abort.o)
                              ..//Common/src/syscalls.o (abort)
c:/program files (x86)/codesourcery/sourcery g++ lite/bin/../lib/gcc/arm-none-eabi/4.4.1/../../../../arm-none-eabi/lib/thumb2\libc.a(lib_a-ecvtbuf.o)
                              ..//utils/printf/ee_printf-arg.o (ecvtbuf)
c:/program files (x86)/codesourcery/sourcery g++ lite/bin/../lib/gcc/arm-none-eabi/4.4.1/../../../../arm-none-eabi/lib/thumb2\libc.a(lib_a-impure.o)
                              c:/program files (x86)/codesourcery/sourcery g++ lite/bin/../lib/gcc/arm-none-eabi/4.4.1/../../../../arm-none-eabi/lib/thumb2\libc.a(lib_a-ecvtbuf.o) (_impure_ptr)
c:/program files (x86)/codesourcery/sourcery g++ lite/bin/../lib/gcc/arm-none-eabi/4.4.1/../../../../arm-none-eabi/lib/thumb2\libc.a(lib_a-malloc.o)
                              ..//common/src/mini_cpp.o (free)
c:/program files (x86)/codesourcery/sourcery g++ lite/bin/../lib/gcc/arm-none-eabi/4.4.1/../../../../arm-none-eabi/lib/thumb2\libc.a(lib_a-mallocr.o)
                              c:/program files (x86)/codesourcery/sourcery g++ lite/bin/../lib/gcc/arm-none-eabi/4.4.1/../../../../arm-none-eabi/lib/thumb2\libc.a(lib_a-malloc.o) (_malloc_r)
c:/program files (x86)/codesourcery/sourcery g++ lite/bin/../lib/gcc/arm-none-eabi/4.4.1/../../../../arm-none-eabi/lib/thumb2\libc.a(lib_a-memcmp.o)
                              ..//drivers/IAP/iap_driver.o (memcmp)
c:/program files (x86)/codesourcery/sourcery g++ lite/bin/../lib/gcc/arm-none-eabi/4.4.1/../../../../arm-none-eabi/lib/thumb2\libc.a(lib_a-memcpy.o)
                              ..//drivers/IAP/iap_driver.o (memcpy)
c:/program files (x86)/codesourcery/sourcery g++ lite/bin/../lib/gcc/arm-none-eabi/4.4.1/../../../../arm-none-eabi/lib/thumb2\libc.a(lib_a-memset.o)
                              ..//drivers/IAP/iap_driver.o (memset)
c:/program files (x86)/codesourcery/sourcery g++ lite/bin/../lib/gcc/arm-none-eabi/4.4.1/../../../../arm-none-eabi/lib/thumb2\libc.a(lib_a-mlock.o)
                              c:/program files (x86)/codesourcery/sourcery g++ lite/bin/../lib/gcc/arm-none-eabi/4.4.1/../../../../arm-none-eabi/lib/thumb2\libc.a(lib_a-mallocr.o) (__malloc_lock)
c:/program files (x86)/codesourcery/sourcery g++ lite/bin/../lib/gcc/arm-none-eabi/4.4.1/../../../../arm-none-eabi/lib/thumb2\libc.a(lib_a-mprec.o)
                              c:/program files (x86)/codesourcery/sourcery g++ lite/bin/../lib/gcc/arm-none-eabi/4.4.1/../../../../arm-none-eabi/lib/thumb2\libc.a(lib_a-ecvtbuf.o) (_mprec_log10)
c:/program files (x86)/codesourcery/sourcery g++ lite/bin/../lib/gcc/arm-none-eabi/4.4.1/../../../../arm-none-eabi/lib/thumb2\libc.a(lib_a-puts.o)
                              ..//drivers/IAP/iap_driver.o (puts)
c:/program files (x86)/codesourcery/sourcery g++ lite/bin/../lib/gcc/arm-none-eabi/4.4.1/../../../../arm-none-eabi/lib/thumb2\libc.a(lib_a-reallocr.o)
                              c:/program files (x86)/codesourcery/sourcery g++ lite/bin/../lib/gcc/arm-none-eabi/4.4.1/../../../../arm-none-eabi/lib/thumb2\libc.a(lib_a-ecvtbuf.o) (_realloc_r)
c:/program files (x86)/codesourcery/sourcery g++ lite/bin/../lib/gcc/arm-none-eabi/4.4.1/../../../../arm-none-eabi/lib/thumb2\libc.a(lib_a-reent.o)
                              ..//Common/src/syscalls.o (errno)
c:/program files (x86)/codesourcery/sourcery g++ lite/bin/../lib/gcc/arm-none-eabi/4.4.1/../../../../arm-none-eabi/lib/thumb2\libc.a(lib_a-sbrkr.o)
                              c:/program files (x86)/codesourcery/sourcery g++ lite/bin/../lib/gcc/arm-none-eabi/4.4.1/../../../../arm-none-eabi/lib/thumb2\libc.a(lib_a-mallocr.o) (_sbrk_r)
c:/program files (x86)/codesourcery/sourcery g++ lite/bin/../lib/gcc/arm-none-eabi/4.4.1/../../../../arm-none-eabi/lib/thumb2\libc.a(lib_a-signal.o)
                              c:/program files (x86)/codesourcery/sourcery g++ lite/bin/../lib/gcc/arm-none-eabi/4.4.1/../../../../arm-none-eabi/lib/thumb2\libc.a(lib_a-abort.o) (raise)
c:/program files (x86)/codesourcery/sourcery g++ lite/bin/../lib/gcc/arm-none-eabi/4.4.1/../../../../arm-none-eabi/lib/thumb2\libc.a(lib_a-signalr.o)
                              c:/program files (x86)/codesourcery/sourcery g++ lite/bin/../lib/gcc/arm-none-eabi/4.4.1/../../../../arm-none-eabi/lib/thumb2\libc.a(lib_a-signal.o) (_getpid_r)
c:/program files (x86)/codesourcery/sourcery g++ lite/bin/../lib/gcc/arm-none-eabi/4.4.1/../../../../arm-none-eabi/lib/thumb2\libc.a(lib_a-strcat.o)
                              ..//PHY/config_data.o (strcat)
c:/program files (x86)/codesourcery/sourcery g++ lite/bin/../lib/gcc/arm-none-eabi/4.4.1/../../../../arm-none-eabi/lib/thumb2\libc.a(lib_a-strcpy.o)
                              c:/program files (x86)/codesourcery/sourcery g++ lite/bin/../lib/gcc/arm-none-eabi/4.4.1/../../../../arm-none-eabi/lib/thumb2\libc.a(lib_a-ecvtbuf.o) (strcpy)
c:/program files (x86)/codesourcery/sourcery g++ lite/bin/../lib/gcc/arm-none-eabi/4.4.1/../../../../arm-none-eabi/lib/thumb2\libc.a(lib_a-strlen.o)
                              ..//utils/i2ceeprom/i2c_eeprom.o (strlen)
c:/program files (x86)/codesourcery/sourcery g++ lite/bin/../lib/gcc/arm-none-eabi/4.4.1/../../../../arm-none-eabi/lib/thumb2\libc.a(lib_a-vsprintf.o)
                              ..//utils/printf/ee_printf-arg.o (vsprintf)
c:/program files (x86)/codesourcery/sourcery g++ lite/bin/../lib/gcc/arm-none-eabi/4.4.1/../../../../arm-none-eabi/lib/thumb2\libc.a(lib_a-callocr.o)
                              c:/program files (x86)/codesourcery/sourcery g++ lite/bin/../lib/gcc/arm-none-eabi/4.4.1/../../../../arm-none-eabi/lib/thumb2\libc.a(lib_a-mprec.o) (_calloc_r)
c:/program files (x86)/codesourcery/sourcery g++ lite/bin/../lib/gcc/arm-none-eabi/4.4.1/../../../../arm-none-eabi/lib/thumb2\libc.a(lib_a-dtoa.o)
                              c:/program files (x86)/codesourcery/sourcery g++ lite/bin/../lib/gcc/arm-none-eabi/4.4.1/../../../../arm-none-eabi/lib/thumb2\libc.a(lib_a-ecvtbuf.o) (_dtoa_r)
c:/program files (x86)/codesourcery/sourcery g++ lite/bin/../lib/gcc/arm-none-eabi/4.4.1/../../../../arm-none-eabi/lib/thumb2\libc.a(lib_a-findfp.o)
                              c:/program files (x86)/codesourcery/sourcery g++ lite/bin/../lib/gcc/arm-none-eabi/4.4.1/../../../../arm-none-eabi/lib/thumb2\libc.a(lib_a-puts.o) (__sinit)
c:/program files (x86)/codesourcery/sourcery g++ lite/bin/../lib/gcc/arm-none-eabi/4.4.1/../../../../arm-none-eabi/lib/thumb2\libc.a(lib_a-freer.o)
                              c:/program files (x86)/codesourcery/sourcery g++ lite/bin/../lib/gcc/arm-none-eabi/4.4.1/../../../../arm-none-eabi/lib/thumb2\libc.a(lib_a-malloc.o) (_free_r)
c:/program files (x86)/codesourcery/sourcery g++ lite/bin/../lib/gcc/arm-none-eabi/4.4.1/../../../../arm-none-eabi/lib/thumb2\libc.a(lib_a-fvwrite.o)
                              c:/program files (x86)/codesourcery/sourcery g++ lite/bin/../lib/gcc/arm-none-eabi/4.4.1/../../../../arm-none-eabi/lib/thumb2\libc.a(lib_a-puts.o) (__sfvwrite_r)
c:/program files (x86)/codesourcery/sourcery g++ lite/bin/../lib/gcc/arm-none-eabi/4.4.1/../../../../arm-none-eabi/lib/thumb2\libc.a(lib_a-fwalk.o)
                              c:/program files (x86)/codesourcery/sourcery g++ lite/bin/../lib/gcc/arm-none-eabi/4.4.1/../../../../arm-none-eabi/lib/thumb2\libc.a(lib_a-findfp.o) (_fwalk)
c:/program files (x86)/codesourcery/sourcery g++ lite/bin/../lib/gcc/arm-none-eabi/4.4.1/../../../../arm-none-eabi/lib/thumb2\libc.a(lib_a-memchr.o)
                              c:/program files (x86)/codesourcery/sourcery g++ lite/bin/../lib/gcc/arm-none-eabi/4.4.1/../../../../arm-none-eabi/lib/thumb2\libc.a(lib_a-fvwrite.o) (memchr)
c:/program files (x86)/codesourcery/sourcery g++ lite/bin/../lib/gcc/arm-none-eabi/4.4.1/../../../../arm-none-eabi/lib/thumb2\libc.a(lib_a-memmove.o)
                              c:/program files (x86)/codesourcery/sourcery g++ lite/bin/../lib/gcc/arm-none-eabi/4.4.1/../../../../arm-none-eabi/lib/thumb2\libc.a(lib_a-reallocr.o) (memmove)
c:/program files (x86)/codesourcery/sourcery g++ lite/bin/../lib/gcc/arm-none-eabi/4.4.1/../../../../arm-none-eabi/lib/thumb2\libc.a(lib_a-stdio.o)
                              c:/program files (x86)/codesourcery/sourcery g++ lite/bin/../lib/gcc/arm-none-eabi/4.4.1/../../../../arm-none-eabi/lib/thumb2\libc.a(lib_a-findfp.o) (__sclose)
c:/program files (x86)/codesourcery/sourcery g++ lite/bin/../lib/gcc/arm-none-eabi/4.4.1/../../../../arm-none-eabi/lib/thumb2\libc.a(lib_a-svfprintf.o)
                              c:/program files (x86)/codesourcery/sourcery g++ lite/bin/../lib/gcc/arm-none-eabi/4.4.1/../../../../arm-none-eabi/lib/thumb2\libc.a(lib_a-vsprintf.o) (_svfprintf_r)
c:/program files (x86)/codesourcery/sourcery g++ lite/bin/../lib/gcc/arm-none-eabi/4.4.1/../../../../arm-none-eabi/lib/thumb2\libc.a(lib_a-writer.o)
                              c:/program files (x86)/codesourcery/sourcery g++ lite/bin/../lib/gcc/arm-none-eabi/4.4.1/../../../../arm-none-eabi/lib/thumb2\libc.a(lib_a-stdio.o) (_write_r)
c:/program files (x86)/codesourcery/sourcery g++ lite/bin/../lib/gcc/arm-none-eabi/4.4.1/../../../../arm-none-eabi/lib/thumb2\libc.a(lib_a-wsetup.o)
                              c:/program files (x86)/codesourcery/sourcery g++ lite/bin/../lib/gcc/arm-none-eabi/4.4.1/../../../../arm-none-eabi/lib/thumb2\libc.a(lib_a-fvwrite.o) (__swsetup_r)
c:/program files (x86)/codesourcery/sourcery g++ lite/bin/../lib/gcc/arm-none-eabi/4.4.1/../../../../arm-none-eabi/lib/thumb2\libc.a(lib_a-closer.o)
                              c:/program files (x86)/codesourcery/sourcery g++ lite/bin/../lib/gcc/arm-none-eabi/4.4.1/../../../../arm-none-eabi/lib/thumb2\libc.a(lib_a-stdio.o) (_close_r)
c:/program files (x86)/codesourcery/sourcery g++ lite/bin/../lib/gcc/arm-none-eabi/4.4.1/../../../../arm-none-eabi/lib/thumb2\libc.a(lib_a-fclose.o)
                              c:/program files (x86)/codesourcery/sourcery g++ lite/bin/../lib/gcc/arm-none-eabi/4.4.1/../../../../arm-none-eabi/lib/thumb2\libc.a(lib_a-findfp.o) (fclose)
c:/program files (x86)/codesourcery/sourcery g++ lite/bin/../lib/gcc/arm-none-eabi/4.4.1/../../../../arm-none-eabi/lib/thumb2\libc.a(lib_a-fflush.o)
                              c:/program files (x86)/codesourcery/sourcery g++ lite/bin/../lib/gcc/arm-none-eabi/4.4.1/../../../../arm-none-eabi/lib/thumb2\libc.a(lib_a-fvwrite.o) (_fflush_r)
c:/program files (x86)/codesourcery/sourcery g++ lite/bin/../lib/gcc/arm-none-eabi/4.4.1/../../../../arm-none-eabi/lib/thumb2\libc.a(lib_a-locale.o)
                              c:/program files (x86)/codesourcery/sourcery g++ lite/bin/../lib/gcc/arm-none-eabi/4.4.1/../../../../arm-none-eabi/lib/thumb2\libc.a(lib_a-svfprintf.o) (_localeconv_r)
c:/program files (x86)/codesourcery/sourcery g++ lite/bin/../lib/gcc/arm-none-eabi/4.4.1/../../../../arm-none-eabi/lib/thumb2\libc.a(lib_a-lseekr.o)
                              c:/program files (x86)/codesourcery/sourcery g++ lite/bin/../lib/gcc/arm-none-eabi/4.4.1/../../../../arm-none-eabi/lib/thumb2\libc.a(lib_a-stdio.o) (_lseek_r)
c:/program files (x86)/codesourcery/sourcery g++ lite/bin/../lib/gcc/arm-none-eabi/4.4.1/../../../../arm-none-eabi/lib/thumb2\libc.a(lib_a-makebuf.o)
                              c:/program files (x86)/codesourcery/sourcery g++ lite/bin/../lib/gcc/arm-none-eabi/4.4.1/../../../../arm-none-eabi/lib/thumb2\libc.a(lib_a-wsetup.o) (__smakebuf_r)
c:/program files (x86)/codesourcery/sourcery g++ lite/bin/../lib/gcc/arm-none-eabi/4.4.1/../../../../arm-none-eabi/lib/thumb2\libc.a(lib_a-readr.o)
                              c:/program files (x86)/codesourcery/sourcery g++ lite/bin/../lib/gcc/arm-none-eabi/4.4.1/../../../../arm-none-eabi/lib/thumb2\libc.a(lib_a-stdio.o) (_read_r)
c:/program files (x86)/codesourcery/sourcery g++ lite/bin/../lib/gcc/arm-none-eabi/4.4.1/../../../../arm-none-eabi/lib/thumb2\libc.a(lib_a-s_isinfd.o)
                              c:/program files (x86)/codesourcery/sourcery g++ lite/bin/../lib/gcc/arm-none-eabi/4.4.1/../../../../arm-none-eabi/lib/thumb2\libc.a(lib_a-svfprintf.o) (__isinfd)
c:/program files (x86)/codesourcery/sourcery g++ lite/bin/../lib/gcc/arm-none-eabi/4.4.1/../../../../arm-none-eabi/lib/thumb2\libc.a(lib_a-s_isnand.o)
                              c:/program files (x86)/codesourcery/sourcery g++ lite/bin/../lib/gcc/arm-none-eabi/4.4.1/../../../../arm-none-eabi/lib/thumb2\libc.a(lib_a-svfprintf.o) (__isnand)
c:/program files (x86)/codesourcery/sourcery g++ lite/bin/../lib/gcc/arm-none-eabi/4.4.1/../../../../arm-none-eabi/lib/thumb2\libc.a(lib_a-strcmp.o)
                              c:/program files (x86)/codesourcery/sourcery g++ lite/bin/../lib/gcc/arm-none-eabi/4.4.1/../../../../arm-none-eabi/lib/thumb2\libc.a(lib_a-locale.o) (strcmp)
c:/program files (x86)/codesourcery/sourcery g++ lite/bin/../lib/gcc/arm-none-eabi/4.4.1/../../../../arm-none-eabi/lib/thumb2\libc.a(lib_a-fstatr.o)
                              c:/program files (x86)/codesourcery/sourcery g++ lite/bin/../lib/gcc/arm-none-eabi/4.4.1/../../../../arm-none-eabi/lib/thumb2\libc.a(lib_a-makebuf.o) (_fstat_r)
c:/program files (x86)/codesourcery/sourcery g++ lite/bin/../lib/gcc/arm-none-eabi/4.4.1/../../../../arm-none-eabi/lib/thumb2\libc.a(lib_a-isattyr.o)
                              c:/program files (x86)/codesourcery/sourcery g++ lite/bin/../lib/gcc/arm-none-eabi/4.4.1/../../../../arm-none-eabi/lib/thumb2\libc.a(lib_a-makebuf.o) (_isatty_r)
c:/program files (x86)/codesourcery/sourcery g++ lite/bin/../lib/gcc/arm-none-eabi/4.4.1/thumb2\libgcc.a(_udivsi3.o)
                              c:/program files (x86)/codesourcery/sourcery g++ lite/bin/../lib/gcc/arm-none-eabi/4.4.1/../../../../arm-none-eabi/lib/thumb2\libc.a(lib_a-dtoa.o) (__aeabi_uidiv)
c:/program files (x86)/codesourcery/sourcery g++ lite/bin/../lib/gcc/arm-none-eabi/4.4.1/thumb2\libgcc.a(_dvmd_tls.o)
                              c:/program files (x86)/codesourcery/sourcery g++ lite/bin/../lib/gcc/arm-none-eabi/4.4.1/thumb2\libgcc.a(_udivsi3.o) (__aeabi_idiv0)
c:/program files (x86)/codesourcery/sourcery g++ lite/bin/../lib/gcc/arm-none-eabi/4.4.1/thumb2\libgcc.a(_arm_addsubdf3.o)
                              c:/program files (x86)/codesourcery/sourcery g++ lite/bin/../lib/gcc/arm-none-eabi/4.4.1/../../../../arm-none-eabi/lib/thumb2\libc.a(lib_a-dtoa.o) (__aeabi_dsub)
c:/program files (x86)/codesourcery/sourcery g++ lite/bin/../lib/gcc/arm-none-eabi/4.4.1/thumb2\libgcc.a(_arm_muldivdf3.o)
                              ..//utils/multi-steppers/multi-steppers.o (__aeabi_dmul)
c:/program files (x86)/codesourcery/sourcery g++ lite/bin/../lib/gcc/arm-none-eabi/4.4.1/thumb2\libgcc.a(_arm_cmpdf2.o)
                              ..//utils/printf/ee_printf-arg.o (__aeabi_dcmpeq)
c:/program files (x86)/codesourcery/sourcery g++ lite/bin/../lib/gcc/arm-none-eabi/4.4.1/thumb2\libgcc.a(_arm_fixdfsi.o)
                              ..//PHY/config_data.o (__aeabi_d2iz)
c:/program files (x86)/codesourcery/sourcery g++ lite/bin/../lib/gcc/arm-none-eabi/4.4.1/thumb2\libgcc.a(_arm_truncdfsf2.o)
                              ..//utils/multi-steppers/multi-steppers.o (__aeabi_d2f)
c:/program files (x86)/codesourcery/sourcery g++ lite/bin/../lib/gcc/arm-none-eabi/4.4.1/thumb2\libgcc.a(_arm_addsubsf3.o)
                              ..//utils/multi-steppers/multi-steppers.o (__aeabi_fsub)
c:/program files (x86)/codesourcery/sourcery g++ lite/bin/../lib/gcc/arm-none-eabi/4.4.1/thumb2\libgcc.a(_arm_muldivsf3.o)
                              ..//utils/multi-steppers/multi-steppers.o (__aeabi_fmul)
c:/program files (x86)/codesourcery/sourcery g++ lite/bin/../lib/gcc/arm-none-eabi/4.4.1/thumb2\libgcc.a(_arm_cmpsf2.o)
                              ..//utils/multi-steppers/multi-steppers.o (__aeabi_fcmpeq)
c:/program files (x86)/codesourcery/sourcery g++ lite/bin/../lib/gcc/arm-none-eabi/4.4.1/thumb2\libgcc.a(_arm_fixsfsi.o)
                              ..//utils/multi-steppers/multi-steppers.o (__aeabi_f2iz)
c:/program files (x86)/codesourcery/sourcery g++ lite/bin/../lib/gcc/arm-none-eabi/4.4.1/thumb2\libgcc.a(_aeabi_uldivmod.o)
                              ..//common/src/lpc17xx_timer.o (__aeabi_uldivmod)
c:/program files (x86)/codesourcery/sourcery g++ lite/bin/../lib/gcc/arm-none-eabi/4.4.1/thumb2\libgcc.a(bpabi.o)
                              c:/program files (x86)/codesourcery/sourcery g++ lite/bin/../lib/gcc/arm-none-eabi/4.4.1/thumb2\libgcc.a(_aeabi_uldivmod.o) (__gnu_uldivmod_helper)
c:/program files (x86)/codesourcery/sourcery g++ lite/bin/../lib/gcc/arm-none-eabi/4.4.1/thumb2\libgcc.a(_divdi3.o)
                              c:/program files (x86)/codesourcery/sourcery g++ lite/bin/../lib/gcc/arm-none-eabi/4.4.1/thumb2\libgcc.a(bpabi.o) (__divdi3)
c:/program files (x86)/codesourcery/sourcery g++ lite/bin/../lib/gcc/arm-none-eabi/4.4.1/thumb2\libgcc.a(_udivdi3.o)
                              c:/program files (x86)/codesourcery/sourcery g++ lite/bin/../lib/gcc/arm-none-eabi/4.4.1/thumb2\libgcc.a(bpabi.o) (__udivdi3)
c:/program files (x86)/codesourcery/sourcery g++ lite/bin/../lib/gcc/arm-none-eabi/4.4.1/../../../../arm-none-eabi/lib/thumb2\libcs3.a(start_c.o)
                              (__cs3_start_c)
c:/program files (x86)/codesourcery/sourcery g++ lite/bin/../lib/gcc/arm-none-eabi/4.4.1/../../../../arm-none-eabi/lib/thumb2\libcs3unhosted.a(unhosted-start.o)
                              ..//common/Core/CM3/startup_LPC17xx.o (_start)
c:/program files (x86)/codesourcery/sourcery g++ lite/bin/../lib/gcc/arm-none-eabi/4.4.1/../../../../arm-none-eabi/lib/thumb2\libc.a(lib_a-init.o)
                              c:/program files (x86)/codesourcery/sourcery g++ lite/bin/../lib/gcc/arm-none-eabi/4.4.1/../../../../arm-none-eabi/lib/thumb2\libcs3.a(start_c.o) (__libc_init_array)

Allocating common symbols
Common symbol       size              file

I2CReadLength       0x4               ..//utils/i2ceeprom/i2c.o
buff_rxUSB          0x100             ..//utils/usbSerial/usbSerial.o
I2CSlaveBuffer      0x10              ..//utils/i2ceeprom/i2c.o
g_stepgen           0xd0              ..//utils/multi-steppers/multi-steppers.o
_db_dec             0x4               ..//common/src/debug_frmwrk.o
errno               0x4               c:/program files (x86)/codesourcery/sourcery g++ lite/bin/../lib/gcc/arm-none-eabi/4.4.1/../../../../arm-none-eabi/lib/thumb2\libc.a(lib_a-reent.o)
_db_dec_32          0x4               ..//common/src/debug_frmwrk.o
_db_hex_32          0x4               ..//common/src/debug_frmwrk.o
ring_tx2            0xc               ..//drivers/UART/uart.o
UART2Status         0x4               ..//drivers/UART/uart.o
UART3Status         0x4               ..//drivers/UART/uart.o
freqscale           0x4               ..//utils/multi-steppers/multi-steppers.o
input_fall_flag     0x4               ..//utils/input_output/input_output.o
_db_dec_16          0x4               ..//common/src/debug_frmwrk.o
input_value         0x4               ..//utils/input_output/input_output.o
TIM_ConfigStruct    0x8               ..//drivers/timer/timer.o
ring_rxUSB          0xc               ..//utils/usbSerial/usbSerial.o
Profiler            0x70              ..//utils/multi-steppers/multi-steppers.o
I2CMasterBuffer     0x12              ..//utils/i2ceeprom/i2c.o
periodns            0x4               ..//utils/multi-steppers/multi-steppers.o
ring_tx3            0xc               ..//drivers/UART/uart.o
ring_rx3            0xc               ..//drivers/UART/uart.o
periodfp            0x4               ..//utils/multi-steppers/multi-steppers.o
modbusUSB           0xb4              ..//utils/usbSerial/usbSerial.o
input_state         0x4               ..//utils/input_output/input_output.o
_db_msg             0x4               ..//common/src/debug_frmwrk.o
_db_get_char        0x4               ..//common/src/debug_frmwrk.o
dtns                0x4               ..//utils/multi-steppers/multi-steppers.o
sspreadbuf          0x2               ..//drivers/SPI/ssp_master.o
_db_msg_            0x4               ..//common/src/debug_frmwrk.o
_db_char            0x4               ..//common/src/debug_frmwrk.o
TIM_MatchConfigStruct
                    0xc               ..//drivers/timer/timer.o
I2CWriteLength      0x4               ..//utils/i2ceeprom/i2c.o
_db_hex             0x4               ..//common/src/debug_frmwrk.o
switch_state_max_fall_count
                    0x10              ..//utils/input_output/input_output.o
accelscale          0x4               ..//utils/multi-steppers/multi-steppers.o
ring_rx0            0xc               ..//drivers/UART/uart.o
input_name          0x4               ..//utils/input_output/input_output.o
dt                  0x4               ..//utils/multi-steppers/multi-steppers.o
modbus2             0xb4              ..//drivers/UART/uart.o
input_rise_flag     0x4               ..//utils/input_output/input_output.o
_db_hex_16          0x4               ..//common/src/debug_frmwrk.o
UART0Status         0x4               ..//drivers/UART/uart.o
ring_rx2            0xc               ..//drivers/UART/uart.o
SSP_ConfigStruct    0x18              ..//drivers/SPI/ssp_master.o
switch_state_max_rise_count
                    0x10              ..//utils/input_output/input_output.o
recip_dt            0x4               ..//utils/multi-steppers/multi-steppers.o

Discarded input sections

 .text          0x00000000        0x0 c:/program files (x86)/codesourcery/sourcery g++ lite/bin/../lib/gcc/arm-none-eabi/4.4.1/thumb2/crti.o
 .data          0x00000000        0x0 c:/program files (x86)/codesourcery/sourcery g++ lite/bin/../lib/gcc/arm-none-eabi/4.4.1/thumb2/crti.o
 .bss           0x00000000        0x0 c:/program files (x86)/codesourcery/sourcery g++ lite/bin/../lib/gcc/arm-none-eabi/4.4.1/thumb2/crti.o
 .data          0x00000000        0x0 ..//common/Core/CM3/startup_LPC17xx.o
 .bss           0x00000000        0x0 ..//common/Core/CM3/startup_LPC17xx.o
 .ARM.extab.cs3.reset
                0x00000000        0x0 ..//common/Core/CM3/startup_LPC17xx.o
 .text          0x00000000        0x0 ..//Common/src/syscalls.o
 .data          0x00000000        0x0 ..//Common/src/syscalls.o
 .bss           0x00000000        0x0 ..//Common/src/syscalls.o
 .text.get_heap_end
                0x00000000       0x18 ..//Common/src/syscalls.o
 .text          0x00000000        0x0 ..//common/Core/CM3/core_cm3.o
 .data          0x00000000        0x0 ..//common/Core/CM3/core_cm3.o
 .bss           0x00000000        0x0 ..//common/Core/CM3/core_cm3.o
 .text.__get_PSP
                0x00000000       0x10 ..//common/Core/CM3/core_cm3.o
 .text.__set_PSP
                0x00000000        0x8 ..//common/Core/CM3/core_cm3.o
 .text.__set_MSP
                0x00000000        0x8 ..//common/Core/CM3/core_cm3.o
 .text.__get_BASEPRI
                0x00000000       0x20 ..//common/Core/CM3/core_cm3.o
 .text.__set_BASEPRI
                0x00000000       0x18 ..//common/Core/CM3/core_cm3.o
 .text.__get_PRIMASK
                0x00000000       0x20 ..//common/Core/CM3/core_cm3.o
 .text.__set_PRIMASK
                0x00000000       0x18 ..//common/Core/CM3/core_cm3.o
 .text.__get_FAULTMASK
                0x00000000       0x20 ..//common/Core/CM3/core_cm3.o
 .text.__set_FAULTMASK
                0x00000000       0x18 ..//common/Core/CM3/core_cm3.o
 .text.__get_CONTROL
                0x00000000       0x20 ..//common/Core/CM3/core_cm3.o
 .text.__set_CONTROL
                0x00000000       0x18 ..//common/Core/CM3/core_cm3.o
 .text.__REV    0x00000000       0x24 ..//common/Core/CM3/core_cm3.o
 .text.__REV16  0x00000000       0x24 ..//common/Core/CM3/core_cm3.o
 .text.__REVSH  0x00000000       0x24 ..//common/Core/CM3/core_cm3.o
 .text.__RBIT   0x00000000       0x24 ..//common/Core/CM3/core_cm3.o
 .text.__LDREXB
                0x00000000       0x24 ..//common/Core/CM3/core_cm3.o
 .text.__LDREXH
                0x00000000       0x24 ..//common/Core/CM3/core_cm3.o
 .text.__LDREXW
                0x00000000       0x24 ..//common/Core/CM3/core_cm3.o
 .text.__STREXB
                0x00000000       0x2c ..//common/Core/CM3/core_cm3.o
 .text.__STREXH
                0x00000000       0x2c ..//common/Core/CM3/core_cm3.o
 .text.__STREXW
                0x00000000       0x28 ..//common/Core/CM3/core_cm3.o
 .text          0x00000000        0x0 ..//common/Core/CM3/system_LPC17xx.o
 .data          0x00000000        0x0 ..//common/Core/CM3/system_LPC17xx.o
 .bss           0x00000000        0x0 ..//common/Core/CM3/system_LPC17xx.o
 .text.SystemCoreClockUpdate
                0x00000000      0x228 ..//common/Core/CM3/system_LPC17xx.o
 .text          0x00000000        0x0 ..//common/src/lpc17xx_gpio.o
 .data          0x00000000        0x0 ..//common/src/lpc17xx_gpio.o
 .bss           0x00000000        0x0 ..//common/src/lpc17xx_gpio.o
 .text.FIO_HalfWordGetPointer
                0x00000000       0x78 ..//common/src/lpc17xx_gpio.o
 .text.FIO_ByteGetPointer
                0x00000000       0x78 ..//common/src/lpc17xx_gpio.o
 .text.GPIO_IntCmd
                0x00000000       0x88 ..//common/src/lpc17xx_gpio.o
 .text.GPIO_GetIntStatus
                0x00000000       0xb0 ..//common/src/lpc17xx_gpio.o
 .text.GPIO_ClearInt
                0x00000000       0x40 ..//common/src/lpc17xx_gpio.o
 .text.FIO_SetDir
                0x00000000       0x2c ..//common/src/lpc17xx_gpio.o
 .text.FIO_SetValue
                0x00000000       0x24 ..//common/src/lpc17xx_gpio.o
 .text.FIO_ClearValue
                0x00000000       0x24 ..//common/src/lpc17xx_gpio.o
 .text.FIO_ReadValue
                0x00000000       0x24 ..//common/src/lpc17xx_gpio.o
 .text.FIO_IntCmd
                0x00000000       0x2c ..//common/src/lpc17xx_gpio.o
 .text.FIO_GetIntStatus
                0x00000000       0x30 ..//common/src/lpc17xx_gpio.o
 .text.FIO_ClearInt
                0x00000000       0x24 ..//common/src/lpc17xx_gpio.o
 .text.FIO_SetMask
                0x00000000       0x58 ..//common/src/lpc17xx_gpio.o
 .text.FIO_HalfWordSetDir
                0x00000000       0xa4 ..//common/src/lpc17xx_gpio.o
 .text.FIO_HalfWordSetMask
                0x00000000       0xa4 ..//common/src/lpc17xx_gpio.o
 .text.FIO_HalfWordSetValue
                0x00000000       0x48 ..//common/src/lpc17xx_gpio.o
 .text.FIO_HalfWordClearValue
                0x00000000       0x48 ..//common/src/lpc17xx_gpio.o
 .text.FIO_HalfWordReadValue
                0x00000000       0x4c ..//common/src/lpc17xx_gpio.o
 .text.FIO_ByteSetDir
                0x00000000       0x7c ..//common/src/lpc17xx_gpio.o
 .text.FIO_ByteSetMask
                0x00000000       0x84 ..//common/src/lpc17xx_gpio.o
 .text.FIO_ByteSetValue
                0x00000000       0x44 ..//common/src/lpc17xx_gpio.o
 .text.FIO_ByteClearValue
                0x00000000       0x44 ..//common/src/lpc17xx_gpio.o
 .text.FIO_ByteReadValue
                0x00000000       0x48 ..//common/src/lpc17xx_gpio.o
 .text          0x00000000        0x0 ..//common/src/lpc17xx_pinsel.o
 .data          0x00000000        0x0 ..//common/src/lpc17xx_pinsel.o
 .bss           0x00000000        0x0 ..//common/src/lpc17xx_pinsel.o
 .text.PINSEL_ConfigTraceFunc
                0x00000000       0x54 ..//common/src/lpc17xx_pinsel.o
 .text.PINSEL_SetI2C0Pins
                0x00000000       0x3c ..//common/src/lpc17xx_pinsel.o
 .text          0x00000000        0x0 ..//common/src/lpc17xx_timer.o
 .data          0x00000000        0x0 ..//common/src/lpc17xx_timer.o
 .bss           0x00000000        0x0 ..//common/src/lpc17xx_timer.o
 .text.TIM_GetIntStatus
                0x00000000       0x40 ..//common/src/lpc17xx_timer.o
 .text.TIM_GetIntCaptureStatus
                0x00000000       0x44 ..//common/src/lpc17xx_timer.o
 .text.TIM_ClearIntCapturePending
                0x00000000       0x30 ..//common/src/lpc17xx_timer.o
 .text.TIM_ConfigStructInit
                0x00000000       0x40 ..//common/src/lpc17xx_timer.o
 .text.TIM_DeInit
                0x00000000       0xa0 ..//common/src/lpc17xx_timer.o
 .rodata        0x00000000       0x20 ..//common/src/lpc17xx_timer.o
 .text.TIM_UpdateMatchValue
                0x00000000       0xa4 ..//common/src/lpc17xx_timer.o
 .text.TIM_ConfigCapture
                0x00000000      0x10c ..//common/src/lpc17xx_timer.o
 .text.TIM_GetCaptureValue
                0x00000000       0x28 ..//common/src/lpc17xx_timer.o
 .text          0x00000000        0x0 ..//common/src/debug_frmwrk.o
 .data          0x00000000        0x0 ..//common/src/debug_frmwrk.o
 .bss           0x00000000        0x0 ..//common/src/debug_frmwrk.o
 .text          0x00000000        0x0 ..//common/src/lpc17xx_uart.o
 .data          0x00000000        0x0 ..//common/src/lpc17xx_uart.o
 .bss           0x00000000        0x0 ..//common/src/lpc17xx_uart.o
 .text.UART_DeInit
                0x00000000       0xa0 ..//common/src/lpc17xx_uart.o
 .text.UART_ForceBreak
                0x00000000       0x44 ..//common/src/lpc17xx_uart.o
 .text.UART_IntConfig
                0x00000000       0xf8 ..//common/src/lpc17xx_uart.o
 .text.UART_GetLineStatus
                0x00000000       0x38 ..//common/src/lpc17xx_uart.o
 .text.UART_GetIntId
                0x00000000       0x24 ..//common/src/lpc17xx_uart.o
 .text.UART_CheckBusy
                0x00000000       0x2c ..//common/src/lpc17xx_uart.o
 .text.UART_FIFOConfig
                0x00000000       0xb0 ..//common/src/lpc17xx_uart.o
 .text.UART_FIFOConfigStructInit
                0x00000000       0x34 ..//common/src/lpc17xx_uart.o
 .text.UART_ABCmd
                0x00000000      0x100 ..//common/src/lpc17xx_uart.o
 .text.UART_ABClearIntPending
                0x00000000       0x44 ..//common/src/lpc17xx_uart.o
 .text.UART_IrDAInvtInputCmd
                0x00000000       0x4c ..//common/src/lpc17xx_uart.o
 .text.UART_IrDACmd
                0x00000000       0x44 ..//common/src/lpc17xx_uart.o
 .text.UART_IrDAPulseDivConfig
                0x00000000       0x4c ..//common/src/lpc17xx_uart.o
 .text.UART_FullModemForcePinState
                0x00000000       0x78 ..//common/src/lpc17xx_uart.o
 .text.UART_FullModemConfigMode
                0x00000000       0x7c ..//common/src/lpc17xx_uart.o
 .text.UART_FullModemGetStatus
                0x00000000       0x1c ..//common/src/lpc17xx_uart.o
 .text.UART_RS485Config
                0x00000000       0xac ..//common/src/lpc17xx_uart.o
 .text.UART_RS485ReceiverCmd
                0x00000000       0x44 ..//common/src/lpc17xx_uart.o
 .text.UART_RS485Send
                0x00000000       0x90 ..//common/src/lpc17xx_uart.o
 .text.UART_RS485SendSlvAddr
                0x00000000       0x30 ..//common/src/lpc17xx_uart.o
 .text.UART_RS485SendData
                0x00000000       0x2c ..//common/src/lpc17xx_uart.o
 .text          0x00000000        0x0 ..//common/src/lpc17xx_clkpwr.o
 .data          0x00000000        0x0 ..//common/src/lpc17xx_clkpwr.o
 .bss           0x00000000        0x0 ..//common/src/lpc17xx_clkpwr.o
 .text.__WFI    0x00000000        0xc ..//common/src/lpc17xx_clkpwr.o
 .text.CLKPWR_Sleep
                0x00000000       0x20 ..//common/src/lpc17xx_clkpwr.o
 .text.CLKPWR_DeepSleep
                0x00000000       0x30 ..//common/src/lpc17xx_clkpwr.o
 .text.CLKPWR_PowerDown
                0x00000000       0x30 ..//common/src/lpc17xx_clkpwr.o
 .text.CLKPWR_DeepPowerDown
                0x00000000       0x30 ..//common/src/lpc17xx_clkpwr.o
 .text          0x00000000        0x0 ..//common/src/lpc17xx_nvic.o
 .data          0x00000000        0x0 ..//common/src/lpc17xx_nvic.o
 .bss           0x00000000        0x0 ..//common/src/lpc17xx_nvic.o
 .text.NVIC_DeInit
                0x00000000       0x7c ..//common/src/lpc17xx_nvic.o
 .text.NVIC_SCBDeInit
                0x00000000       0xbc ..//common/src/lpc17xx_nvic.o
 .text.NVIC_SetVTOR
                0x00000000       0x20 ..//common/src/lpc17xx_nvic.o
 .text          0x00000000        0x0 ..//common/src/lpc17xx_qei.o
 .data          0x00000000        0x0 ..//common/src/lpc17xx_qei.o
 .bss           0x00000000        0x0 ..//common/src/lpc17xx_qei.o
 .text.QEI_Reset
                0x00000000       0x1c ..//common/src/lpc17xx_qei.o
 .text.QEI_Init
                0x00000000       0x9c ..//common/src/lpc17xx_qei.o
 .text.QEI_DeInit
                0x00000000       0x24 ..//common/src/lpc17xx_qei.o
 .text.QEI_ConfigStructInit
                0x00000000       0x3c ..//common/src/lpc17xx_qei.o
 .text.QEI_GetStatus
                0x00000000       0x28 ..//common/src/lpc17xx_qei.o
 .text.QEI_GetPosition
                0x00000000       0x18 ..//common/src/lpc17xx_qei.o
 .text.QEI_SetMaxPosition
                0x00000000       0x1c ..//common/src/lpc17xx_qei.o
 .text.QEI_SetPositionComp
                0x00000000       0x30 ..//common/src/lpc17xx_qei.o
 .text.QEI_GetIndex
                0x00000000       0x18 ..//common/src/lpc17xx_qei.o
 .text.QEI_SetIndexComp
                0x00000000       0x1c ..//common/src/lpc17xx_qei.o
 .text.QEI_SetTimerReload
                0x00000000       0x88 ..//common/src/lpc17xx_qei.o
 .text.QEI_GetTimer
                0x00000000       0x18 ..//common/src/lpc17xx_qei.o
 .text.QEI_GetVelocity
                0x00000000       0x18 ..//common/src/lpc17xx_qei.o
 .text.QEI_GetVelocityCap
                0x00000000       0x18 ..//common/src/lpc17xx_qei.o
 .text.QEI_SetVelocityComp
                0x00000000       0x1c ..//common/src/lpc17xx_qei.o
 .text.QEI_SetDigiFilter
                0x00000000       0x1c ..//common/src/lpc17xx_qei.o
 .text.QEI_GetIntStatus
                0x00000000       0x2c ..//common/src/lpc17xx_qei.o
 .text.QEI_IntCmd
                0x00000000       0x30 ..//common/src/lpc17xx_qei.o
 .text.QEI_IntSet
                0x00000000       0x1c ..//common/src/lpc17xx_qei.o
 .text.QEI_IntClear
                0x00000000       0x1c ..//common/src/lpc17xx_qei.o
 .text.QEI_CalculateRPM
                0x00000000       0xfc ..//common/src/lpc17xx_qei.o
 .text          0x00000000        0x0 ..//common/src/lpc17xx_spi.o
 .data          0x00000000        0x0 ..//common/src/lpc17xx_spi.o
 .bss           0x00000000        0x0 ..//common/src/lpc17xx_spi.o
 .text.SPI_Init
                0x00000000      0x13c ..//common/src/lpc17xx_spi.o
 .text.SPI_ConfigClockRate
                0x00000000       0x24 ..//common/src/lpc17xx_spi.o
 .text.SPI_CS_Low
                0x00000000       0x24 ..//common/src/lpc17xx_spi.o
 .text.SPI_CS_High
                0x00000000       0x24 ..//common/src/lpc17xx_spi.o
 .text.SPI_SendByte
                0x00000000       0x40 ..//common/src/lpc17xx_spi.o
 .text.SPI_RecvByte
                0x00000000       0x18 ..//common/src/lpc17xx_spi.o
 .text.SPI_SendBlock_FIFO
                0x00000000       0xd8 ..//common/src/lpc17xx_spi.o
 .text.SPI_RecvBlock_FIFO
                0x00000000       0xf0 ..//common/src/lpc17xx_spi.o
 .text          0x00000000        0x0 ..//common/src/lpc17xx_ssp.o
 .data          0x00000000        0x0 ..//common/src/lpc17xx_ssp.o
 .bss           0x00000000        0x0 ..//common/src/lpc17xx_ssp.o
 .text.setSSPclock
                0x00000000       0xdc ..//common/src/lpc17xx_ssp.o
 .text.SSP_Init
                0x00000000       0xa8 ..//common/src/lpc17xx_ssp.o
 .text.SSP_DeInit
                0x00000000       0x54 ..//common/src/lpc17xx_ssp.o
 .text.SSP_GetDataSize
                0x00000000       0x20 ..//common/src/lpc17xx_ssp.o
 .text.SSP_ConfigStructInit
                0x00000000       0x48 ..//common/src/lpc17xx_ssp.o
 .text.SSP_Cmd  0x00000000       0x38 ..//common/src/lpc17xx_ssp.o
 .text.SSP_LoopBackCmd
                0x00000000       0x38 ..//common/src/lpc17xx_ssp.o
 .text.SSP_SlaveOutputCmd
                0x00000000       0x38 ..//common/src/lpc17xx_ssp.o
 .text.SSP_SendData
                0x00000000       0x1c ..//common/src/lpc17xx_ssp.o
 .text.SSP_ReceiveData
                0x00000000       0x1c ..//common/src/lpc17xx_ssp.o
 .text.SSP_ReadWrite
                0x00000000      0x3d8 ..//common/src/lpc17xx_ssp.o
 .text.SSP_GetStatus
                0x00000000       0x28 ..//common/src/lpc17xx_ssp.o
 .text.SSP_IntConfig
                0x00000000       0x44 ..//common/src/lpc17xx_ssp.o
 .text.SSP_GetRawIntStatus
                0x00000000       0x28 ..//common/src/lpc17xx_ssp.o
 .text.SSP_GetRawIntStatusReg
                0x00000000       0x18 ..//common/src/lpc17xx_ssp.o
 .text.SSP_GetIntStatus
                0x00000000       0x28 ..//common/src/lpc17xx_ssp.o
 .text.SSP_ClearIntPending
                0x00000000       0x1c ..//common/src/lpc17xx_ssp.o
 .text.SSP_DMACmd
                0x00000000       0x44 ..//common/src/lpc17xx_ssp.o
 .text          0x00000000        0x0 ..//common/src/lpc17xx_i2c.o
 .data          0x00000000        0x0 ..//common/src/lpc17xx_i2c.o
 .bss           0x00000000        0x0 ..//common/src/lpc17xx_i2c.o
 .bss.i2cdat    0x00000000       0x18 ..//common/src/lpc17xx_i2c.o
 .bss.I2C_MasterComplete
                0x00000000        0xc ..//common/src/lpc17xx_i2c.o
 .bss.I2C_SlaveComplete
                0x00000000        0xc ..//common/src/lpc17xx_i2c.o
 .bss.I2C_MonitorBufferIndex
                0x00000000        0x4 ..//common/src/lpc17xx_i2c.o
 .text.I2C_getNum
                0x00000000       0x54 ..//common/src/lpc17xx_i2c.o
 .text.I2C_Start
                0x00000000       0x40 ..//common/src/lpc17xx_i2c.o
 .text.I2C_Stop
                0x00000000       0x38 ..//common/src/lpc17xx_i2c.o
 .text.I2C_SendByte
                0x00000000       0x50 ..//common/src/lpc17xx_i2c.o
 .text.I2C_GetByte
                0x00000000       0x58 ..//common/src/lpc17xx_i2c.o
 .text.I2C_SetClock
                0x00000000       0xa0 ..//common/src/lpc17xx_i2c.o
 .text.I2C_Init
                0x00000000       0xc8 ..//common/src/lpc17xx_i2c.o
 .text.I2C_MasterHandler
                0x00000000      0x3ec ..//common/src/lpc17xx_i2c.o
 .text.I2C_SlaveHandler
                0x00000000      0x1f0 ..//common/src/lpc17xx_i2c.o
 .text.I2C_MasterTransferData
                0x00000000      0x394 ..//common/src/lpc17xx_i2c.o
 .text.I2C_SlaveTransferData
                0x00000000      0x274 ..//common/src/lpc17xx_i2c.o
 .rodata        0x00000000       0x20 ..//common/src/lpc17xx_i2c.o
 .text.I2C_SetOwnSlaveAddr
                0x00000000      0x124 ..//common/src/lpc17xx_i2c.o
 .text.I2C_MonitorModeConfig
                0x00000000       0xa4 ..//common/src/lpc17xx_i2c.o
 .text.I2C_MonitorModeCmd
                0x00000000       0xbc ..//common/src/lpc17xx_i2c.o
 .text.I2C_MonitorGetDatabuffer
                0x00000000       0x58 ..//common/src/lpc17xx_i2c.o
 .text.I2C_MonitorHandler
                0x00000000       0x6c ..//common/src/lpc17xx_i2c.o
 .text.I2C_MasterTransferComplete
                0x00000000       0x48 ..//common/src/lpc17xx_i2c.o
 .text.I2C_SlaveTransferComplete
                0x00000000       0x48 ..//common/src/lpc17xx_i2c.o
 .text          0x00000000        0x0 ..//common/src/lpc17xx_rtc.o
 .data          0x00000000        0x0 ..//common/src/lpc17xx_rtc.o
 .bss           0x00000000        0x0 ..//common/src/lpc17xx_rtc.o
 .text.LPC17xx_RTC_Init
                0x00000000       0x88 ..//common/src/lpc17xx_rtc.o
 .text.LPC17xx_RTC_Start
                0x00000000       0x28 ..//common/src/lpc17xx_rtc.o
 .text.LPC17xx_RTC_Stop
                0x00000000       0x24 ..//common/src/lpc17xx_rtc.o
 .text.LPC17xx_RTC_CTCReset
                0x00000000       0x28 ..//common/src/lpc17xx_rtc.o
 .text.LPC17xx_RTC_SetTime
                0x00000000       0x90 ..//common/src/lpc17xx_rtc.o
 .text.LPC17xx_RTC_GetTime
                0x00000000       0xa0 ..//common/src/lpc17xx_rtc.o
 .text          0x00000000        0x0 ..//common/src/lpc17xx_emac.o
 .data          0x00000000        0x0 ..//common/src/lpc17xx_emac.o
 .bss           0x00000000        0x0 ..//common/src/lpc17xx_emac.o
 .rodata.EMAC_clkdiv
                0x00000000        0x8 ..//common/src/lpc17xx_emac.o
 .bss.Rx_Desc   0x00000000       0x20 ..//common/src/lpc17xx_emac.o
 .bss.Rx_Stat   0x00000000       0x20 ..//common/src/lpc17xx_emac.o
 .bss.Tx_Desc   0x00000000       0x18 ..//common/src/lpc17xx_emac.o
 .bss.Tx_Stat   0x00000000        0xc ..//common/src/lpc17xx_emac.o
 .bss.rx_buf    0x00000000     0x1800 ..//common/src/lpc17xx_emac.o
 .bss.tx_buf    0x00000000     0x1200 ..//common/src/lpc17xx_emac.o
 .text.rx_descr_init
                0x00000000       0xcc ..//common/src/lpc17xx_emac.o
 .text.tx_descr_init
                0x00000000       0xb0 ..//common/src/lpc17xx_emac.o
 .text.write_PHY
                0x00000000       0x68 ..//common/src/lpc17xx_emac.o
 .text.read_PHY
                0x00000000       0x74 ..//common/src/lpc17xx_emac.o
 .text.setEmacAddr
                0x00000000       0x68 ..//common/src/lpc17xx_emac.o
 .text.emac_CRCCalc
                0x00000000      0x138 ..//common/src/lpc17xx_emac.o
 .text.EMAC_Init
                0x00000000      0x210 ..//common/src/lpc17xx_emac.o
 .text.EMAC_Init_New
                0x00000000      0x1fc ..//common/src/lpc17xx_emac.o
 .text.EMAC_DeInit
                0x00000000       0x30 ..//common/src/lpc17xx_emac.o
 .text.EMAC_CheckPHYStatus
                0x00000000       0x6c ..//common/src/lpc17xx_emac.o
 .text.EMAC_SetPHYMode
                0x00000000      0x148 ..//common/src/lpc17xx_emac.o
 .text.EMAC_UpdatePHYStatus
                0x00000000       0xbc ..//common/src/lpc17xx_emac.o
 .text.EMAC_SetHashFilter
                0x00000000       0xac ..//common/src/lpc17xx_emac.o
 .text.EMAC_SetFilterMode
                0x00000000       0x50 ..//common/src/lpc17xx_emac.o
 .text.EMAC_GetWoLStatus
                0x00000000       0x3c ..//common/src/lpc17xx_emac.o
 .text.EMAC_WritePacketBuffer
                0x00000000       0x88 ..//common/src/lpc17xx_emac.o
 .text.EMAC_ReadPacketBuffer
                0x00000000       0x70 ..//common/src/lpc17xx_emac.o
 .text.EMAC_IntCmd
                0x00000000       0x50 ..//common/src/lpc17xx_emac.o
 .text.EMAC_IntGetStatus
                0x00000000       0x3c ..//common/src/lpc17xx_emac.o
 .text.EMAC_CheckReceiveIndex
                0x00000000       0x2c ..//common/src/lpc17xx_emac.o
 .text.EMAC_CheckTransmitIndex
                0x00000000       0x38 ..//common/src/lpc17xx_emac.o
 .text.EMAC_CheckReceiveDataStatus
                0x00000000       0x3c ..//common/src/lpc17xx_emac.o
 .text.EMAC_GetReceiveDataSize
                0x00000000       0x34 ..//common/src/lpc17xx_emac.o
 .text.EMAC_UpdateRxConsumeIndex
                0x00000000       0x38 ..//common/src/lpc17xx_emac.o
 .text.EMAC_UpdateTxProduceIndex
                0x00000000       0x38 ..//common/src/lpc17xx_emac.o
 .text          0x00000000        0x0 ..//common/src/delay.o
 .data          0x00000000        0x0 ..//common/src/delay.o
 .bss           0x00000000        0x0 ..//common/src/delay.o
 .text._delay_s
                0x00000000       0x28 ..//common/src/delay.o
 .text          0x00000000        0x0 ..//common/src/mini_cpp.o
 .data          0x00000000        0x0 ..//common/src/mini_cpp.o
 .bss           0x00000000        0x0 ..//common/src/mini_cpp.o
 .text._Znwj    0x00000000       0x20 ..//common/src/mini_cpp.o
 .text._Znaj    0x00000000       0x20 ..//common/src/mini_cpp.o
 .text          0x00000000        0x0 ..//drivers/timer/timer.o
 .data          0x00000000        0x0 ..//drivers/timer/timer.o
 .bss           0x00000000        0x0 ..//drivers/timer/timer.o
 .text.disable_timer
                0x00000000       0xa8 ..//drivers/timer/timer.o
 .text.init_timer0
                0x00000000       0xd4 ..//drivers/timer/timer.o
 .text.init_timer0_mode_match
                0x00000000       0xe0 ..//drivers/timer/timer.o
 .text.init_timer1
                0x00000000       0xd4 ..//drivers/timer/timer.o
 .text.init_timer1_mode_match
                0x00000000       0xe0 ..//drivers/timer/timer.o
 .text.init_timer2
                0x00000000       0xd4 ..//drivers/timer/timer.o
 .text.init_timer2_mode_match
                0x00000000       0xe0 ..//drivers/timer/timer.o
 .text.init_timer3
                0x00000000       0xd4 ..//drivers/timer/timer.o
 .text.init_timer3_mode_match
                0x00000000       0xe0 ..//drivers/timer/timer.o
 .text          0x00000000        0x0 ..//drivers/UART/uart.o
 .data          0x00000000        0x0 ..//drivers/UART/uart.o
 .bss           0x00000000        0x0 ..//drivers/UART/uart.o
 .text.NVIC_EnableIRQ
                0x00000000       0x38 ..//drivers/UART/uart.o
 .text.NVIC_SetPriority
                0x00000000       0x5c ..//drivers/UART/uart.o
 .bss.preset_enable
                0x00000000       0x10 ..//drivers/UART/uart.o
 .Ram1          0x00000000      0x700 ..//drivers/UART/uart.o
 .text.UARTInit
                0x00000000      0x530 ..//drivers/UART/uart.o
 .text.UART_Init2
                0x00000000       0x48 ..//drivers/UART/uart.o
 .text.Uart_PutStrBuf2
                0x00000000       0x40 ..//drivers/UART/uart.o
 .text.Uart_GetCh2
                0x00000000       0x44 ..//drivers/UART/uart.o
 .text.UART_Init3
                0x00000000       0x2c ..//drivers/UART/uart.o
 .text.Uart_PutCharBuf3
                0x00000000       0x64 ..//drivers/UART/uart.o
 .text.Uart_StartSending3
                0x00000000       0x50 ..//drivers/UART/uart.o
 .text.Uart_SendCharArray3
                0x00000000       0x58 ..//drivers/UART/uart.o
 .text.Uart_PutStrBuf3
                0x00000000       0x40 ..//drivers/UART/uart.o
 .text.Uart_GetC3
                0x00000000       0x30 ..//drivers/UART/uart.o
 .text.Uart_ChkRcv3
                0x00000000       0x1c ..//drivers/UART/uart.o
 .text.UART_Init0
                0x00000000       0x20 ..//drivers/UART/uart.o
 .text.Uart_PutCharBuf0
                0x00000000       0x34 ..//drivers/UART/uart.o
 .text.Uart_PutStrBuf0
                0x00000000       0x40 ..//drivers/UART/uart.o
 .text.Uart_ChkRcv0
                0x00000000       0x1c ..//drivers/UART/uart.o
 .text.Uart_GetC0
                0x00000000       0x30 ..//drivers/UART/uart.o
 .text.Uart_GetCh0
                0x00000000       0x44 ..//drivers/UART/uart.o
 .text.uart2TxFlush
                0x00000000       0x28 ..//drivers/UART/uart.o
 .text.uart3TxFlush
                0x00000000       0x28 ..//drivers/UART/uart.o
 .text.uart3TxRxEnable
                0x00000000       0x20 ..//drivers/UART/uart.o
 .text          0x00000000        0x0 ..//drivers/USB/intenable.o
 .data          0x00000000        0x0 ..//drivers/USB/intenable.o
 .bss           0x00000000        0x0 ..//drivers/USB/intenable.o
 .text.NVIC_EnableIRQ
                0x00000000       0x38 ..//drivers/USB/intenable.o
 .text.enable_USB_interrupts
                0x00000000       0x14 ..//drivers/USB/intenable.o
 .text          0x00000000        0x0 ..//drivers/USB/usbhw_lpc.o
 .data          0x00000000        0x0 ..//drivers/USB/usbhw_lpc.o
 .bss           0x00000000        0x0 ..//drivers/USB/usbhw_lpc.o
 .text          0x00000000        0x0 ..//drivers/USB/serial_fifo.o
 .data          0x00000000        0x0 ..//drivers/USB/serial_fifo.o
 .bss           0x00000000        0x0 ..//drivers/USB/serial_fifo.o
 .text          0x00000000        0x0 ..//drivers/USB/usbinit.o
 .data          0x00000000        0x0 ..//drivers/USB/usbinit.o
 .bss           0x00000000        0x0 ..//drivers/USB/usbinit.o
 .text          0x00000000        0x0 ..//drivers/USB/usbcontrol.o
 .data          0x00000000        0x0 ..//drivers/USB/usbcontrol.o
 .bss           0x00000000        0x0 ..//drivers/USB/usbcontrol.o
 .text          0x00000000        0x0 ..//drivers/USB/usbstdreq.o
 .data          0x00000000        0x0 ..//drivers/USB/usbstdreq.o
 .bss           0x00000000        0x0 ..//drivers/USB/usbstdreq.o
 .text.USBRegisterCustomReqHandler
                0x00000000       0x20 ..//drivers/USB/usbstdreq.o
 .text          0x00000000        0x0 ..//drivers/IAP/iap_driver.o
 .data          0x00000000        0x0 ..//drivers/IAP/iap_driver.o
 .bss           0x00000000        0x0 ..//drivers/IAP/iap_driver.o
 .rodata.flash_sector_addrs
                0x00000000       0x78 ..//drivers/IAP/iap_driver.o
 .rodata.flash_sector_sizes
                0x00000000       0x78 ..//drivers/IAP/iap_driver.o
 .data.iap_entry
                0x00000000        0x4 ..//drivers/IAP/iap_driver.o
 .text.iap_read_id
                0x00000000       0x30 ..//drivers/IAP/iap_driver.o
 .text.iap_read_version
                0x00000000       0x30 ..//drivers/IAP/iap_driver.o
 .text.iap_read_serial
                0x00000000       0x30 ..//drivers/IAP/iap_driver.o
 .text.iap_blank_check
                0x00000000       0x3c ..//drivers/IAP/iap_driver.o
 .rodata        0x00000000       0xac ..//drivers/IAP/iap_driver.o
 .text.iap_prepare
                0x00000000       0x58 ..//drivers/IAP/iap_driver.o
 .text.iap_erase
                0x00000000       0x70 ..//drivers/IAP/iap_driver.o
 .text.iap_compare
                0x00000000       0x68 ..//drivers/IAP/iap_driver.o
 .text.iap_write
                0x00000000      0x1fc ..//drivers/IAP/iap_driver.o
 .text.iap_get_ptr
                0x00000000       0x2c ..//drivers/IAP/iap_driver.o
 .text.iap_read
                0x00000000       0x3c ..//drivers/IAP/iap_driver.o
 .text.iap_copy
                0x00000000       0xd8 ..//drivers/IAP/iap_driver.o
 .text.iap_cmp  0x00000000       0x3c ..//drivers/IAP/iap_driver.o
 .text          0x00000000        0x0 ..//drivers/SPI/ssp_master.o
 .data          0x00000000        0x0 ..//drivers/SPI/ssp_master.o
 .bss           0x00000000        0x0 ..//drivers/SPI/ssp_master.o
 .data.iocon_cfg
                0x00000000        0x4 ..//drivers/SPI/ssp_master.o
 .data.iodir_cfg
                0x00000000        0x4 ..//drivers/SPI/ssp_master.o
 .data.iostate_on
                0x00000000        0x4 ..//drivers/SPI/ssp_master.o
 .data.iostate_off
                0x00000000        0x4 ..//drivers/SPI/ssp_master.o
 .text.SSP_CS_Init
                0x00000000       0x30 ..//drivers/SPI/ssp_master.o
 .text.SSP_CS_Force
                0x00000000       0x3c ..//drivers/SPI/ssp_master.o
 .text.ssp_master_init
                0x00000000       0xe8 ..//drivers/SPI/ssp_master.o
 COMMON         0x00000000       0x1c ..//drivers/SPI/ssp_master.o
 .text          0x00000000        0x0 ..//utils/ring_buffer/ring.o
 .data          0x00000000        0x0 ..//utils/ring_buffer/ring.o
 .bss           0x00000000        0x0 ..//utils/ring_buffer/ring.o
 .text.ring_get_capacity
                0x00000000       0x40 ..//utils/ring_buffer/ring.o
 .text          0x00000000        0x0 ..//utils/ringbuf/RingBuf.o
 .data          0x00000000        0x0 ..//utils/ringbuf/RingBuf.o
 .bss           0x00000000        0x0 ..//utils/ringbuf/RingBuf.o
 .text.Ringbuf_Count
                0x00000000       0x2c ..//utils/ringbuf/RingBuf.o
 .text.Ringbuf_Full
                0x00000000       0x3c ..//utils/ringbuf/RingBuf.o
 .text.Ringbuf_Empty
                0x00000000       0x38 ..//utils/ringbuf/RingBuf.o
 .text.Ringbuf_Get_Front
                0x00000000       0x60 ..//utils/ringbuf/RingBuf.o
 .text.Ringbuf_Pop_Front
                0x00000000       0x64 ..//utils/ringbuf/RingBuf.o
 .text.Ringbuf_Put
                0x00000000       0xa8 ..//utils/ringbuf/RingBuf.o
 .text.valid_power_of_two
                0x00000000       0x60 ..//utils/ringbuf/RingBuf.o
 .text.Ringbuf_Init
                0x00000000       0x50 ..//utils/ringbuf/RingBuf.o
 .text          0x00000000        0x0 ..//utils/printf/ee_printf-arg.o
 .data          0x00000000        0x0 ..//utils/printf/ee_printf-arg.o
 .bss           0x00000000        0x0 ..//utils/printf/ee_printf-arg.o
 .text.sprintf  0x00000000       0x38 ..//utils/printf/ee_printf-arg.o
 .text          0x00000000        0x0 ..//utils/input_output/input_output.o
 .data          0x00000000        0x0 ..//utils/input_output/input_output.o
 .bss           0x00000000        0x0 ..//utils/input_output/input_output.o
 .text.fast_io_update
                0x00000000      0x260 ..//utils/input_output/input_output.o
 .bss.input_value.4901
                0x00000000        0x4 ..//utils/input_output/input_output.o
 .bss.i.4900    0x00000000        0x4 ..//utils/input_output/input_output.o
 .text          0x00000000        0x0 ..//utils/multi-steppers/multi-steppers.o
 .data          0x00000000        0x0 ..//utils/multi-steppers/multi-steppers.o
 .bss           0x00000000        0x0 ..//utils/multi-steppers/multi-steppers.o
 .bss.trig_update_freq
                0x00000000        0x4 ..//utils/multi-steppers/multi-steppers.o
 .bss.modbus_data_complete
                0x00000000        0x4 ..//utils/multi-steppers/multi-steppers.o
 .bss.ring_slaveID
                0x00000000        0x1 ..//utils/multi-steppers/multi-steppers.o
 .data.PULSE_PORT_CLEAR_NUM
                0x00000000       0x10 ..//utils/multi-steppers/multi-steppers.o
 .text.stepper_init_timers
                0x00000000       0x38 ..//utils/multi-steppers/multi-steppers.o
 .text.print_profiler_data
                0x00000000       0x18 ..//utils/multi-steppers/multi-steppers.o
 .text.stepper_stop_synchro_motor
                0x00000000      0x128 ..//utils/multi-steppers/multi-steppers.o
 .text.stepper_set_new_profile_ainv
                0x00000000       0x50 ..//utils/multi-steppers/multi-steppers.o
 .text.stepper_set_new_vmax
                0x00000000       0x40 ..//utils/multi-steppers/multi-steppers.o
 .text.stepper_set_new_amax
                0x00000000       0x40 ..//utils/multi-steppers/multi-steppers.o
 .text.stepper_set_new_de_max
                0x00000000       0x5c ..//utils/multi-steppers/multi-steppers.o
 .text.stepper_get_final_pos
                0x00000000       0x40 ..//utils/multi-steppers/multi-steppers.o
 .text.stepper_get_running_motor
                0x00000000       0x44 ..//utils/multi-steppers/multi-steppers.o
 .text.stepper_get_running_motors
                0x00000000       0x4c ..//utils/multi-steppers/multi-steppers.o
 .text.stepper_get_max_vel
                0x00000000       0x34 ..//utils/multi-steppers/multi-steppers.o
 .text.stepper_get_max_acc
                0x00000000       0x30 ..//utils/multi-steppers/multi-steppers.o
 .text.stepper_set_curr_pos
                0x00000000       0xb4 ..//utils/multi-steppers/multi-steppers.o
 .text.stepper_offset_inc
                0x00000000       0x78 ..//utils/multi-steppers/multi-steppers.o
 .text.stepper_steps
                0x00000000       0x5c ..//utils/multi-steppers/multi-steppers.o
 .text.stepper_reset_axis
                0x00000000       0x78 ..//utils/multi-steppers/multi-steppers.o
 .text          0x00000000        0x0 ..//utils/i2ceeprom/i2c.o
 .data          0x00000000        0x0 ..//utils/i2ceeprom/i2c.o
 .bss           0x00000000        0x0 ..//utils/i2ceeprom/i2c.o
 .bss.I2CSlaveState
                0x00000000        0x4 ..//utils/i2ceeprom/i2c.o
 .bss.incr      0x00000000        0x4 ..//utils/i2ceeprom/i2c.o
 .text          0x00000000        0x0 ..//utils/i2ceeprom/i2c_eeprom.o
 .data          0x00000000        0x0 ..//utils/i2ceeprom/i2c_eeprom.o
 .bss           0x00000000        0x0 ..//utils/i2ceeprom/i2c_eeprom.o
 .text.i2cEEPROM_read32
                0x00000000       0xf0 ..//utils/i2ceeprom/i2c_eeprom.o
 .text.i2cEEPROM_write32
                0x00000000      0x100 ..//utils/i2ceeprom/i2c_eeprom.o
 .text.i2ctest_wr
                0x00000000       0xe0 ..//utils/i2ceeprom/i2c_eeprom.o
 .text.i2ctest_rd
                0x00000000       0xcc ..//utils/i2ceeprom/i2c_eeprom.o
 .text          0x00000000        0x0 ..//utils/usbSerial/usbSerial.o
 .data          0x00000000        0x0 ..//utils/usbSerial/usbSerial.o
 .bss           0x00000000        0x0 ..//utils/usbSerial/usbSerial.o
 .text.VCOM_TxBuff_init
                0x00000000       0x20 ..//utils/usbSerial/usbSerial.o
 .text.VCOM_RxBuff_init
                0x00000000       0x20 ..//utils/usbSerial/usbSerial.o
 .text.VCOM_getchar
                0x00000000       0x38 ..//utils/usbSerial/usbSerial.o
 .text.VCOM_getchar1
                0x00000000       0x40 ..//utils/usbSerial/usbSerial.o
 .text.VCOM_getcharN
                0x00000000       0x94 ..//utils/usbSerial/usbSerial.o
 .text.VCOM_puts
                0x00000000       0x34 ..//utils/usbSerial/usbSerial.o
 .text.VCOM_putc
                0x00000000       0x28 ..//utils/usbSerial/usbSerial.o
 .text.VCOM_getc
                0x00000000       0x28 ..//utils/usbSerial/usbSerial.o
 .rodata        0x00000000       0x10 ..//utils/usbSerial/usbSerial.o
 .text.VCOM_putHex
                0x00000000       0x78 ..//utils/usbSerial/usbSerial.o
 .text.VCOM_gets
                0x00000000       0x50 ..//utils/usbSerial/usbSerial.o
 .text.VCOM_getc_echo
                0x00000000       0x30 ..//utils/usbSerial/usbSerial.o
 .text.VCOM_gets_echo
                0x00000000       0x50 ..//utils/usbSerial/usbSerial.o
 .text.xatoi    0x00000000      0x184 ..//utils/usbSerial/usbSerial.o
 .text.xitoa    0x00000000      0x164 ..//utils/usbSerial/usbSerial.o
 .text.VCOM_printf
                0x00000000      0x1ec ..//utils/usbSerial/usbSerial.o
 .text          0x00000000        0x0 ..//utils/modbus/modbus.o
 .data          0x00000000        0x0 ..//utils/modbus/modbus.o
 .bss           0x00000000        0x0 ..//utils/modbus/modbus.o
 .data.fixedData
                0x00000000        0x1 ..//utils/modbus/modbus.o
 .text          0x00000000        0x0 ..//PHY/interrupts.o
 .data          0x00000000        0x0 ..//PHY/interrupts.o
 .bss           0x00000000        0x0 ..//PHY/interrupts.o
 .group         0x00000000        0x8 ..//PHY/main.o
 .group         0x00000000        0x8 ..//PHY/main.o
 .text          0x00000000        0x0 ..//PHY/main.o
 .data          0x00000000        0x0 ..//PHY/main.o
 .bss           0x00000000        0x0 ..//PHY/main.o
 .bss.slave_id_select
                0x00000000        0x4 ..//PHY/main.o
 .bss.parity_bit
                0x00000000        0x4 ..//PHY/main.o
 .data.stop_bit
                0x00000000        0x4 ..//PHY/main.o
 .bss.flash_write_allowed
                0x00000000        0x4 ..//PHY/main.o
 .bss.storeRes  0x00000000        0x1 ..//PHY/main.o
 .bss.CPTR      0x00000000        0x1 ..//PHY/main.o
 .bss.temp      0x00000000        0x2 ..//PHY/main.o
 .text._Z9UpdatePTRPt
                0x00000000       0x40 ..//PHY/main.o
 .text._Z13Check_RX_DataPt
                0x00000000      0x324 ..//PHY/main.o
 .text._Z24modbus_exception_handleri
                0x00000000       0x18 ..//PHY/main.o
 .text.take_samples
                0x00000000       0x10 ..//PHY/main.o
 .text._Z19start_state_machinev
                0x00000000       0x60 ..//PHY/main.o
 .text._Z18stop_state_machinev
                0x00000000       0x60 ..//PHY/main.o
 .rodata._ZL7MemSize
                0x00000000        0x4 ..//PHY/main.o
 .text          0x00000000        0x0 ..//PHY/config_data.o
 .data          0x00000000        0x0 ..//PHY/config_data.o
 .bss           0x00000000        0x0 ..//PHY/config_data.o
 .bss.eepromStorage1
                0x00000000        0x4 ..//PHY/config_data.o
 .bss.eepromStorage2
                0x00000000        0x4 ..//PHY/config_data.o
 .bss.eepromStorage3
                0x00000000        0x4 ..//PHY/config_data.o
 .text._Z19read_config_versionv
                0x00000000      0x168 ..//PHY/config_data.o
 .text._Z24write_Sequence_to_EEPROMPcii
                0x00000000      0x1d0 ..//PHY/config_data.o
 .text._Z25read_Sequence_from_EEPROMPcii
                0x00000000      0x114 ..//PHY/config_data.o
 .text          0x00000000        0x0 ..//utils/delay_timer/delay_timer.o
 .data          0x00000000        0x0 ..//utils/delay_timer/delay_timer.o
 .bss           0x00000000        0x0 ..//utils/delay_timer/delay_timer.o
 .bss._ZL12delay_enable
                0x00000000       0x30 ..//utils/delay_timer/delay_timer.o
 .text._ZL9time_leftmm
                0x00000000       0x50 ..//utils/delay_timer/delay_timer.o
 .text._Z8my_delayl
                0x00000000       0x48 ..//utils/delay_timer/delay_timer.o
 .text._Z15dt_timeup_reseti
                0x00000000       0x50 ..//utils/delay_timer/delay_timer.o
 .text._Z12dt_time_lefti
                0x00000000       0x40 ..//utils/delay_timer/delay_timer.o
 .text._Z12dt_get_delayi
                0x00000000       0x24 ..//utils/delay_timer/delay_timer.o
 .text._Z10dt_get_hmsmm
                0x00000000      0x160 ..//utils/delay_timer/delay_timer.o
 .text._Z14dt_convert_hms6DT_HMSm
                0x00000000       0x6c ..//utils/delay_timer/delay_timer.o
 .text._Z8dt_starti
                0x00000000       0x44 ..//utils/delay_timer/delay_timer.o
 .text._Z7dt_stopi
                0x00000000       0x28 ..//utils/delay_timer/delay_timer.o
 .text._Z24dt_is_timeup_with_enablei
                0x00000000       0x54 ..//utils/delay_timer/delay_timer.o
 .group         0x00000000        0x8 ..//utils/state_machine/state_machine.o
 .group         0x00000000        0x8 ..//utils/state_machine/state_machine.o
 .text          0x00000000        0x0 ..//utils/state_machine/state_machine.o
 .data          0x00000000        0x0 ..//utils/state_machine/state_machine.o
 .bss           0x00000000        0x0 ..//utils/state_machine/state_machine.o
 .text._ZN13State_MachineC1Ev
                0x00000000       0x38 ..//utils/state_machine/state_machine.o
 .text._ZN13State_MachineC2Ei
                0x00000000       0x38 ..//utils/state_machine/state_machine.o
 .text._ZN13State_MachineC1Ei
                0x00000000       0x38 ..//utils/state_machine/state_machine.o
 .text._ZN13State_Machine10next_stateEv
                0x00000000       0x24 ..//utils/state_machine/state_machine.o
 .text._ZN13State_Machine10next_stateEi
                0x00000000       0x20 ..//utils/state_machine/state_machine.o
 .text          0x00000000        0x0 ..//utils/modbus/SimpleModbusSlave_1769.o
 .data          0x00000000        0x0 ..//utils/modbus/SimpleModbusSlave_1769.o
 .bss           0x00000000        0x0 ..//utils/modbus/SimpleModbusSlave_1769.o
 .group         0x00000000        0x8 ..//PHY/state_machines/SM_Operation.o
 .group         0x00000000        0x8 ..//PHY/state_machines/SM_Operation.o
 .group         0x00000000        0x8 ..//PHY/state_machines/SM_Operation.o
 .text          0x00000000        0x0 ..//PHY/state_machines/SM_Operation.o
 .data          0x00000000        0x0 ..//PHY/state_machines/SM_Operation.o
 .bss           0x00000000        0x0 ..//PHY/state_machines/SM_Operation.o
 .text._ZN13State_MachineD2Ev
                0x00000000       0x34 ..//PHY/state_machines/SM_Operation.o
 .text._ZN12SM_OPERATIONC2Ev
                0x00000000       0x44 ..//PHY/state_machines/SM_Operation.o
 .text._ZN12SM_OPERATION8stop_nowEv
                0x00000000       0x28 ..//PHY/state_machines/SM_Operation.o
 .text._ZN12SM_OPERATIOND1Ev
                0x00000000       0x44 ..//PHY/state_machines/SM_Operation.o
 .data          0x00000000        0x0 c:/program files (x86)/codesourcery/sourcery g++ lite/bin/../lib/gcc/arm-none-eabi/4.4.1/../../../../arm-none-eabi/lib/thumb2\libm.a(lib_a-s_ceil.o)
 .bss           0x00000000        0x0 c:/program files (x86)/codesourcery/sourcery g++ lite/bin/../lib/gcc/arm-none-eabi/4.4.1/../../../../arm-none-eabi/lib/thumb2\libm.a(lib_a-s_ceil.o)
 .data          0x00000000        0x0 c:/program files (x86)/codesourcery/sourcery g++ lite/bin/../lib/gcc/arm-none-eabi/4.4.1/../../../../arm-none-eabi/lib/thumb2\libc.a(lib_a-abort.o)
 .bss           0x00000000        0x0 c:/program files (x86)/codesourcery/sourcery g++ lite/bin/../lib/gcc/arm-none-eabi/4.4.1/../../../../arm-none-eabi/lib/thumb2\libc.a(lib_a-abort.o)
 .data          0x00000000        0x0 c:/program files (x86)/codesourcery/sourcery g++ lite/bin/../lib/gcc/arm-none-eabi/4.4.1/../../../../arm-none-eabi/lib/thumb2\libc.a(lib_a-ecvtbuf.o)
 .bss           0x00000000        0x0 c:/program files (x86)/codesourcery/sourcery g++ lite/bin/../lib/gcc/arm-none-eabi/4.4.1/../../../../arm-none-eabi/lib/thumb2\libc.a(lib_a-ecvtbuf.o)
 .text          0x00000000        0x0 c:/program files (x86)/codesourcery/sourcery g++ lite/bin/../lib/gcc/arm-none-eabi/4.4.1/../../../../arm-none-eabi/lib/thumb2\libc.a(lib_a-impure.o)
 .bss           0x00000000        0x0 c:/program files (x86)/codesourcery/sourcery g++ lite/bin/../lib/gcc/arm-none-eabi/4.4.1/../../../../arm-none-eabi/lib/thumb2\libc.a(lib_a-impure.o)
 .data          0x00000000        0x0 c:/program files (x86)/codesourcery/sourcery g++ lite/bin/../lib/gcc/arm-none-eabi/4.4.1/../../../../arm-none-eabi/lib/thumb2\libc.a(lib_a-malloc.o)
 .bss           0x00000000        0x0 c:/program files (x86)/codesourcery/sourcery g++ lite/bin/../lib/gcc/arm-none-eabi/4.4.1/../../../../arm-none-eabi/lib/thumb2\libc.a(lib_a-malloc.o)
 .text          0x00000000       0x64 c:/program files (x86)/codesourcery/sourcery g++ lite/bin/../lib/gcc/arm-none-eabi/4.4.1/../../../../arm-none-eabi/lib/thumb2\libc.a(lib_a-memcmp.o)
 .data          0x00000000        0x0 c:/program files (x86)/codesourcery/sourcery g++ lite/bin/../lib/gcc/arm-none-eabi/4.4.1/../../../../arm-none-eabi/lib/thumb2\libc.a(lib_a-memcmp.o)
 .bss           0x00000000        0x0 c:/program files (x86)/codesourcery/sourcery g++ lite/bin/../lib/gcc/arm-none-eabi/4.4.1/../../../../arm-none-eabi/lib/thumb2\libc.a(lib_a-memcmp.o)
 .data          0x00000000        0x0 c:/program files (x86)/codesourcery/sourcery g++ lite/bin/../lib/gcc/arm-none-eabi/4.4.1/../../../../arm-none-eabi/lib/thumb2\libc.a(lib_a-memcpy.o)
 .bss           0x00000000        0x0 c:/program files (x86)/codesourcery/sourcery g++ lite/bin/../lib/gcc/arm-none-eabi/4.4.1/../../../../arm-none-eabi/lib/thumb2\libc.a(lib_a-memcpy.o)
 .data          0x00000000        0x0 c:/program files (x86)/codesourcery/sourcery g++ lite/bin/../lib/gcc/arm-none-eabi/4.4.1/../../../../arm-none-eabi/lib/thumb2\libc.a(lib_a-memset.o)
 .bss           0x00000000        0x0 c:/program files (x86)/codesourcery/sourcery g++ lite/bin/../lib/gcc/arm-none-eabi/4.4.1/../../../../arm-none-eabi/lib/thumb2\libc.a(lib_a-memset.o)
 .data          0x00000000        0x0 c:/program files (x86)/codesourcery/sourcery g++ lite/bin/../lib/gcc/arm-none-eabi/4.4.1/../../../../arm-none-eabi/lib/thumb2\libc.a(lib_a-mlock.o)
 .bss           0x00000000        0x0 c:/program files (x86)/codesourcery/sourcery g++ lite/bin/../lib/gcc/arm-none-eabi/4.4.1/../../../../arm-none-eabi/lib/thumb2\libc.a(lib_a-mlock.o)
 .data          0x00000000        0x0 c:/program files (x86)/codesourcery/sourcery g++ lite/bin/../lib/gcc/arm-none-eabi/4.4.1/../../../../arm-none-eabi/lib/thumb2\libc.a(lib_a-mprec.o)
 .bss           0x00000000        0x0 c:/program files (x86)/codesourcery/sourcery g++ lite/bin/../lib/gcc/arm-none-eabi/4.4.1/../../../../arm-none-eabi/lib/thumb2\libc.a(lib_a-mprec.o)
 .data          0x00000000        0x0 c:/program files (x86)/codesourcery/sourcery g++ lite/bin/../lib/gcc/arm-none-eabi/4.4.1/../../../../arm-none-eabi/lib/thumb2\libc.a(lib_a-puts.o)
 .bss           0x00000000        0x0 c:/program files (x86)/codesourcery/sourcery g++ lite/bin/../lib/gcc/arm-none-eabi/4.4.1/../../../../arm-none-eabi/lib/thumb2\libc.a(lib_a-puts.o)
 .data          0x00000000        0x0 c:/program files (x86)/codesourcery/sourcery g++ lite/bin/../lib/gcc/arm-none-eabi/4.4.1/../../../../arm-none-eabi/lib/thumb2\libc.a(lib_a-reallocr.o)
 .bss           0x00000000        0x0 c:/program files (x86)/codesourcery/sourcery g++ lite/bin/../lib/gcc/arm-none-eabi/4.4.1/../../../../arm-none-eabi/lib/thumb2\libc.a(lib_a-reallocr.o)
 .text          0x00000000      0x10c c:/program files (x86)/codesourcery/sourcery g++ lite/bin/../lib/gcc/arm-none-eabi/4.4.1/../../../../arm-none-eabi/lib/thumb2\libc.a(lib_a-reent.o)
 .data          0x00000000        0x0 c:/program files (x86)/codesourcery/sourcery g++ lite/bin/../lib/gcc/arm-none-eabi/4.4.1/../../../../arm-none-eabi/lib/thumb2\libc.a(lib_a-reent.o)
 .bss           0x00000000        0x0 c:/program files (x86)/codesourcery/sourcery g++ lite/bin/../lib/gcc/arm-none-eabi/4.4.1/../../../../arm-none-eabi/lib/thumb2\libc.a(lib_a-reent.o)
 .data          0x00000000        0x0 c:/program files (x86)/codesourcery/sourcery g++ lite/bin/../lib/gcc/arm-none-eabi/4.4.1/../../../../arm-none-eabi/lib/thumb2\libc.a(lib_a-sbrkr.o)
 .bss           0x00000000        0x0 c:/program files (x86)/codesourcery/sourcery g++ lite/bin/../lib/gcc/arm-none-eabi/4.4.1/../../../../arm-none-eabi/lib/thumb2\libc.a(lib_a-sbrkr.o)
 .data          0x00000000        0x0 c:/program files (x86)/codesourcery/sourcery g++ lite/bin/../lib/gcc/arm-none-eabi/4.4.1/../../../../arm-none-eabi/lib/thumb2\libc.a(lib_a-signal.o)
 .bss           0x00000000        0x0 c:/program files (x86)/codesourcery/sourcery g++ lite/bin/../lib/gcc/arm-none-eabi/4.4.1/../../../../arm-none-eabi/lib/thumb2\libc.a(lib_a-signal.o)
 .data          0x00000000        0x0 c:/program files (x86)/codesourcery/sourcery g++ lite/bin/../lib/gcc/arm-none-eabi/4.4.1/../../../../arm-none-eabi/lib/thumb2\libc.a(lib_a-signalr.o)
 .bss           0x00000000        0x0 c:/program files (x86)/codesourcery/sourcery g++ lite/bin/../lib/gcc/arm-none-eabi/4.4.1/../../../../arm-none-eabi/lib/thumb2\libc.a(lib_a-signalr.o)
 .text          0x00000000       0x48 c:/program files (x86)/codesourcery/sourcery g++ lite/bin/../lib/gcc/arm-none-eabi/4.4.1/../../../../arm-none-eabi/lib/thumb2\libc.a(lib_a-strcat.o)
 .data          0x00000000        0x0 c:/program files (x86)/codesourcery/sourcery g++ lite/bin/../lib/gcc/arm-none-eabi/4.4.1/../../../../arm-none-eabi/lib/thumb2\libc.a(lib_a-strcat.o)
 .bss           0x00000000        0x0 c:/program files (x86)/codesourcery/sourcery g++ lite/bin/../lib/gcc/arm-none-eabi/4.4.1/../../../../arm-none-eabi/lib/thumb2\libc.a(lib_a-strcat.o)
 .data          0x00000000        0x0 c:/program files (x86)/codesourcery/sourcery g++ lite/bin/../lib/gcc/arm-none-eabi/4.4.1/../../../../arm-none-eabi/lib/thumb2\libc.a(lib_a-strcpy.o)
 .bss           0x00000000        0x0 c:/program files (x86)/codesourcery/sourcery g++ lite/bin/../lib/gcc/arm-none-eabi/4.4.1/../../../../arm-none-eabi/lib/thumb2\libc.a(lib_a-strcpy.o)
 .data          0x00000000        0x0 c:/program files (x86)/codesourcery/sourcery g++ lite/bin/../lib/gcc/arm-none-eabi/4.4.1/../../../../arm-none-eabi/lib/thumb2\libc.a(lib_a-strlen.o)
 .bss           0x00000000        0x0 c:/program files (x86)/codesourcery/sourcery g++ lite/bin/../lib/gcc/arm-none-eabi/4.4.1/../../../../arm-none-eabi/lib/thumb2\libc.a(lib_a-strlen.o)
 .text          0x00000000       0x4c c:/program files (x86)/codesourcery/sourcery g++ lite/bin/../lib/gcc/arm-none-eabi/4.4.1/../../../../arm-none-eabi/lib/thumb2\libc.a(lib_a-vsprintf.o)
 .data          0x00000000        0x0 c:/program files (x86)/codesourcery/sourcery g++ lite/bin/../lib/gcc/arm-none-eabi/4.4.1/../../../../arm-none-eabi/lib/thumb2\libc.a(lib_a-vsprintf.o)
 .bss           0x00000000        0x0 c:/program files (x86)/codesourcery/sourcery g++ lite/bin/../lib/gcc/arm-none-eabi/4.4.1/../../../../arm-none-eabi/lib/thumb2\libc.a(lib_a-vsprintf.o)
 .data          0x00000000        0x0 c:/program files (x86)/codesourcery/sourcery g++ lite/bin/../lib/gcc/arm-none-eabi/4.4.1/../../../../arm-none-eabi/lib/thumb2\libc.a(lib_a-callocr.o)
 .bss           0x00000000        0x0 c:/program files (x86)/codesourcery/sourcery g++ lite/bin/../lib/gcc/arm-none-eabi/4.4.1/../../../../arm-none-eabi/lib/thumb2\libc.a(lib_a-callocr.o)
 .data          0x00000000        0x0 c:/program files (x86)/codesourcery/sourcery g++ lite/bin/../lib/gcc/arm-none-eabi/4.4.1/../../../../arm-none-eabi/lib/thumb2\libc.a(lib_a-dtoa.o)
 .bss           0x00000000        0x0 c:/program files (x86)/codesourcery/sourcery g++ lite/bin/../lib/gcc/arm-none-eabi/4.4.1/../../../../arm-none-eabi/lib/thumb2\libc.a(lib_a-dtoa.o)
 .data          0x00000000        0x0 c:/program files (x86)/codesourcery/sourcery g++ lite/bin/../lib/gcc/arm-none-eabi/4.4.1/../../../../arm-none-eabi/lib/thumb2\libc.a(lib_a-findfp.o)
 .bss           0x00000000        0x0 c:/program files (x86)/codesourcery/sourcery g++ lite/bin/../lib/gcc/arm-none-eabi/4.4.1/../../../../arm-none-eabi/lib/thumb2\libc.a(lib_a-findfp.o)
 .data          0x00000000        0x0 c:/program files (x86)/codesourcery/sourcery g++ lite/bin/../lib/gcc/arm-none-eabi/4.4.1/../../../../arm-none-eabi/lib/thumb2\libc.a(lib_a-freer.o)
 .bss           0x00000000        0x0 c:/program files (x86)/codesourcery/sourcery g++ lite/bin/../lib/gcc/arm-none-eabi/4.4.1/../../../../arm-none-eabi/lib/thumb2\libc.a(lib_a-freer.o)
 .data          0x00000000        0x0 c:/program files (x86)/codesourcery/sourcery g++ lite/bin/../lib/gcc/arm-none-eabi/4.4.1/../../../../arm-none-eabi/lib/thumb2\libc.a(lib_a-fvwrite.o)
 .bss           0x00000000        0x0 c:/program files (x86)/codesourcery/sourcery g++ lite/bin/../lib/gcc/arm-none-eabi/4.4.1/../../../../arm-none-eabi/lib/thumb2\libc.a(lib_a-fvwrite.o)
 .data          0x00000000        0x0 c:/program files (x86)/codesourcery/sourcery g++ lite/bin/../lib/gcc/arm-none-eabi/4.4.1/../../../../arm-none-eabi/lib/thumb2\libc.a(lib_a-fwalk.o)
 .bss           0x00000000        0x0 c:/program files (x86)/codesourcery/sourcery g++ lite/bin/../lib/gcc/arm-none-eabi/4.4.1/../../../../arm-none-eabi/lib/thumb2\libc.a(lib_a-fwalk.o)
 .data          0x00000000        0x0 c:/program files (x86)/codesourcery/sourcery g++ lite/bin/../lib/gcc/arm-none-eabi/4.4.1/../../../../arm-none-eabi/lib/thumb2\libc.a(lib_a-memchr.o)
 .bss           0x00000000        0x0 c:/program files (x86)/codesourcery/sourcery g++ lite/bin/../lib/gcc/arm-none-eabi/4.4.1/../../../../arm-none-eabi/lib/thumb2\libc.a(lib_a-memchr.o)
 .data          0x00000000        0x0 c:/program files (x86)/codesourcery/sourcery g++ lite/bin/../lib/gcc/arm-none-eabi/4.4.1/../../../../arm-none-eabi/lib/thumb2\libc.a(lib_a-memmove.o)
 .bss           0x00000000        0x0 c:/program files (x86)/codesourcery/sourcery g++ lite/bin/../lib/gcc/arm-none-eabi/4.4.1/../../../../arm-none-eabi/lib/thumb2\libc.a(lib_a-memmove.o)
 .data          0x00000000        0x0 c:/program files (x86)/codesourcery/sourcery g++ lite/bin/../lib/gcc/arm-none-eabi/4.4.1/../../../../arm-none-eabi/lib/thumb2\libc.a(lib_a-stdio.o)
 .bss           0x00000000        0x0 c:/program files (x86)/codesourcery/sourcery g++ lite/bin/../lib/gcc/arm-none-eabi/4.4.1/../../../../arm-none-eabi/lib/thumb2\libc.a(lib_a-stdio.o)
 .text          0x00000000     0x15a8 c:/program files (x86)/codesourcery/sourcery g++ lite/bin/../lib/gcc/arm-none-eabi/4.4.1/../../../../arm-none-eabi/lib/thumb2\libc.a(lib_a-svfprintf.o)
 .data          0x00000000        0x0 c:/program files (x86)/codesourcery/sourcery g++ lite/bin/../lib/gcc/arm-none-eabi/4.4.1/../../../../arm-none-eabi/lib/thumb2\libc.a(lib_a-svfprintf.o)
 .bss           0x00000000        0x0 c:/program files (x86)/codesourcery/sourcery g++ lite/bin/../lib/gcc/arm-none-eabi/4.4.1/../../../../arm-none-eabi/lib/thumb2\libc.a(lib_a-svfprintf.o)
 .rodata        0x00000000       0x20 c:/program files (x86)/codesourcery/sourcery g++ lite/bin/../lib/gcc/arm-none-eabi/4.4.1/../../../../arm-none-eabi/lib/thumb2\libc.a(lib_a-svfprintf.o)
 .rodata.str1.4
                0x00000000       0x44 c:/program files (x86)/codesourcery/sourcery g++ lite/bin/../lib/gcc/arm-none-eabi/4.4.1/../../../../arm-none-eabi/lib/thumb2\libc.a(lib_a-svfprintf.o)
 .data          0x00000000        0x0 c:/program files (x86)/codesourcery/sourcery g++ lite/bin/../lib/gcc/arm-none-eabi/4.4.1/../../../../arm-none-eabi/lib/thumb2\libc.a(lib_a-writer.o)
 .bss           0x00000000        0x0 c:/program files (x86)/codesourcery/sourcery g++ lite/bin/../lib/gcc/arm-none-eabi/4.4.1/../../../../arm-none-eabi/lib/thumb2\libc.a(lib_a-writer.o)
 .data          0x00000000        0x0 c:/program files (x86)/codesourcery/sourcery g++ lite/bin/../lib/gcc/arm-none-eabi/4.4.1/../../../../arm-none-eabi/lib/thumb2\libc.a(lib_a-wsetup.o)
 .bss           0x00000000        0x0 c:/program files (x86)/codesourcery/sourcery g++ lite/bin/../lib/gcc/arm-none-eabi/4.4.1/../../../../arm-none-eabi/lib/thumb2\libc.a(lib_a-wsetup.o)
 .data          0x00000000        0x0 c:/program files (x86)/codesourcery/sourcery g++ lite/bin/../lib/gcc/arm-none-eabi/4.4.1/../../../../arm-none-eabi/lib/thumb2\libc.a(lib_a-closer.o)
 .bss           0x00000000        0x0 c:/program files (x86)/codesourcery/sourcery g++ lite/bin/../lib/gcc/arm-none-eabi/4.4.1/../../../../arm-none-eabi/lib/thumb2\libc.a(lib_a-closer.o)
 .data          0x00000000        0x0 c:/program files (x86)/codesourcery/sourcery g++ lite/bin/../lib/gcc/arm-none-eabi/4.4.1/../../../../arm-none-eabi/lib/thumb2\libc.a(lib_a-fclose.o)
 .bss           0x00000000        0x0 c:/program files (x86)/codesourcery/sourcery g++ lite/bin/../lib/gcc/arm-none-eabi/4.4.1/../../../../arm-none-eabi/lib/thumb2\libc.a(lib_a-fclose.o)
 .data          0x00000000        0x0 c:/program files (x86)/codesourcery/sourcery g++ lite/bin/../lib/gcc/arm-none-eabi/4.4.1/../../../../arm-none-eabi/lib/thumb2\libc.a(lib_a-fflush.o)
 .bss           0x00000000        0x0 c:/program files (x86)/codesourcery/sourcery g++ lite/bin/../lib/gcc/arm-none-eabi/4.4.1/../../../../arm-none-eabi/lib/thumb2\libc.a(lib_a-fflush.o)
 .text          0x00000000       0x74 c:/program files (x86)/codesourcery/sourcery g++ lite/bin/../lib/gcc/arm-none-eabi/4.4.1/../../../../arm-none-eabi/lib/thumb2\libc.a(lib_a-locale.o)
 .data          0x00000000       0x10 c:/program files (x86)/codesourcery/sourcery g++ lite/bin/../lib/gcc/arm-none-eabi/4.4.1/../../../../arm-none-eabi/lib/thumb2\libc.a(lib_a-locale.o)
 .bss           0x00000000        0xc c:/program files (x86)/codesourcery/sourcery g++ lite/bin/../lib/gcc/arm-none-eabi/4.4.1/../../../../arm-none-eabi/lib/thumb2\libc.a(lib_a-locale.o)
 .rodata        0x00000000       0x34 c:/program files (x86)/codesourcery/sourcery g++ lite/bin/../lib/gcc/arm-none-eabi/4.4.1/../../../../arm-none-eabi/lib/thumb2\libc.a(lib_a-locale.o)
 .rodata.str1.4
                0x00000000       0x18 c:/program files (x86)/codesourcery/sourcery g++ lite/bin/../lib/gcc/arm-none-eabi/4.4.1/../../../../arm-none-eabi/lib/thumb2\libc.a(lib_a-locale.o)
 .data          0x00000000        0x0 c:/program files (x86)/codesourcery/sourcery g++ lite/bin/../lib/gcc/arm-none-eabi/4.4.1/../../../../arm-none-eabi/lib/thumb2\libc.a(lib_a-lseekr.o)
 .bss           0x00000000        0x0 c:/program files (x86)/codesourcery/sourcery g++ lite/bin/../lib/gcc/arm-none-eabi/4.4.1/../../../../arm-none-eabi/lib/thumb2\libc.a(lib_a-lseekr.o)
 .data          0x00000000        0x0 c:/program files (x86)/codesourcery/sourcery g++ lite/bin/../lib/gcc/arm-none-eabi/4.4.1/../../../../arm-none-eabi/lib/thumb2\libc.a(lib_a-makebuf.o)
 .bss           0x00000000        0x0 c:/program files (x86)/codesourcery/sourcery g++ lite/bin/../lib/gcc/arm-none-eabi/4.4.1/../../../../arm-none-eabi/lib/thumb2\libc.a(lib_a-makebuf.o)
 .data          0x00000000        0x0 c:/program files (x86)/codesourcery/sourcery g++ lite/bin/../lib/gcc/arm-none-eabi/4.4.1/../../../../arm-none-eabi/lib/thumb2\libc.a(lib_a-readr.o)
 .bss           0x00000000        0x0 c:/program files (x86)/codesourcery/sourcery g++ lite/bin/../lib/gcc/arm-none-eabi/4.4.1/../../../../arm-none-eabi/lib/thumb2\libc.a(lib_a-readr.o)
 .text          0x00000000       0x24 c:/program files (x86)/codesourcery/sourcery g++ lite/bin/../lib/gcc/arm-none-eabi/4.4.1/../../../../arm-none-eabi/lib/thumb2\libc.a(lib_a-s_isinfd.o)
 .data          0x00000000        0x0 c:/program files (x86)/codesourcery/sourcery g++ lite/bin/../lib/gcc/arm-none-eabi/4.4.1/../../../../arm-none-eabi/lib/thumb2\libc.a(lib_a-s_isinfd.o)
 .bss           0x00000000        0x0 c:/program files (x86)/codesourcery/sourcery g++ lite/bin/../lib/gcc/arm-none-eabi/4.4.1/../../../../arm-none-eabi/lib/thumb2\libc.a(lib_a-s_isinfd.o)
 .text          0x00000000       0x1c c:/program files (x86)/codesourcery/sourcery g++ lite/bin/../lib/gcc/arm-none-eabi/4.4.1/../../../../arm-none-eabi/lib/thumb2\libc.a(lib_a-s_isnand.o)
 .data          0x00000000        0x0 c:/program files (x86)/codesourcery/sourcery g++ lite/bin/../lib/gcc/arm-none-eabi/4.4.1/../../../../arm-none-eabi/lib/thumb2\libc.a(lib_a-s_isnand.o)
 .bss           0x00000000        0x0 c:/program files (x86)/codesourcery/sourcery g++ lite/bin/../lib/gcc/arm-none-eabi/4.4.1/../../../../arm-none-eabi/lib/thumb2\libc.a(lib_a-s_isnand.o)
 .text          0x00000000      0x1dc c:/program files (x86)/codesourcery/sourcery g++ lite/bin/../lib/gcc/arm-none-eabi/4.4.1/../../../../arm-none-eabi/lib/thumb2\libc.a(lib_a-strcmp.o)
 .data          0x00000000        0x0 c:/program files (x86)/codesourcery/sourcery g++ lite/bin/../lib/gcc/arm-none-eabi/4.4.1/../../../../arm-none-eabi/lib/thumb2\libc.a(lib_a-strcmp.o)
 .bss           0x00000000        0x0 c:/program files (x86)/codesourcery/sourcery g++ lite/bin/../lib/gcc/arm-none-eabi/4.4.1/../../../../arm-none-eabi/lib/thumb2\libc.a(lib_a-strcmp.o)
 .data          0x00000000        0x0 c:/program files (x86)/codesourcery/sourcery g++ lite/bin/../lib/gcc/arm-none-eabi/4.4.1/../../../../arm-none-eabi/lib/thumb2\libc.a(lib_a-fstatr.o)
 .bss           0x00000000        0x0 c:/program files (x86)/codesourcery/sourcery g++ lite/bin/../lib/gcc/arm-none-eabi/4.4.1/../../../../arm-none-eabi/lib/thumb2\libc.a(lib_a-fstatr.o)
 .data          0x00000000        0x0 c:/program files (x86)/codesourcery/sourcery g++ lite/bin/../lib/gcc/arm-none-eabi/4.4.1/../../../../arm-none-eabi/lib/thumb2\libc.a(lib_a-isattyr.o)
 .bss           0x00000000        0x0 c:/program files (x86)/codesourcery/sourcery g++ lite/bin/../lib/gcc/arm-none-eabi/4.4.1/../../../../arm-none-eabi/lib/thumb2\libc.a(lib_a-isattyr.o)
 .data          0x00000000        0x0 c:/program files (x86)/codesourcery/sourcery g++ lite/bin/../lib/gcc/arm-none-eabi/4.4.1/thumb2\libgcc.a(_udivsi3.o)
 .bss           0x00000000        0x0 c:/program files (x86)/codesourcery/sourcery g++ lite/bin/../lib/gcc/arm-none-eabi/4.4.1/thumb2\libgcc.a(_udivsi3.o)
 .data          0x00000000        0x0 c:/program files (x86)/codesourcery/sourcery g++ lite/bin/../lib/gcc/arm-none-eabi/4.4.1/thumb2\libgcc.a(_dvmd_tls.o)
 .bss           0x00000000        0x0 c:/program files (x86)/codesourcery/sourcery g++ lite/bin/../lib/gcc/arm-none-eabi/4.4.1/thumb2\libgcc.a(_dvmd_tls.o)
 .data          0x00000000        0x0 c:/program files (x86)/codesourcery/sourcery g++ lite/bin/../lib/gcc/arm-none-eabi/4.4.1/thumb2\libgcc.a(_arm_addsubdf3.o)
 .bss           0x00000000        0x0 c:/program files (x86)/codesourcery/sourcery g++ lite/bin/../lib/gcc/arm-none-eabi/4.4.1/thumb2\libgcc.a(_arm_addsubdf3.o)
 .data          0x00000000        0x0 c:/program files (x86)/codesourcery/sourcery g++ lite/bin/../lib/gcc/arm-none-eabi/4.4.1/thumb2\libgcc.a(_arm_muldivdf3.o)
 .bss           0x00000000        0x0 c:/program files (x86)/codesourcery/sourcery g++ lite/bin/../lib/gcc/arm-none-eabi/4.4.1/thumb2\libgcc.a(_arm_muldivdf3.o)
 .data          0x00000000        0x0 c:/program files (x86)/codesourcery/sourcery g++ lite/bin/../lib/gcc/arm-none-eabi/4.4.1/thumb2\libgcc.a(_arm_cmpdf2.o)
 .bss           0x00000000        0x0 c:/program files (x86)/codesourcery/sourcery g++ lite/bin/../lib/gcc/arm-none-eabi/4.4.1/thumb2\libgcc.a(_arm_cmpdf2.o)
 .data          0x00000000        0x0 c:/program files (x86)/codesourcery/sourcery g++ lite/bin/../lib/gcc/arm-none-eabi/4.4.1/thumb2\libgcc.a(_arm_fixdfsi.o)
 .bss           0x00000000        0x0 c:/program files (x86)/codesourcery/sourcery g++ lite/bin/../lib/gcc/arm-none-eabi/4.4.1/thumb2\libgcc.a(_arm_fixdfsi.o)
 .data          0x00000000        0x0 c:/program files (x86)/codesourcery/sourcery g++ lite/bin/../lib/gcc/arm-none-eabi/4.4.1/thumb2\libgcc.a(_arm_truncdfsf2.o)
 .bss           0x00000000        0x0 c:/program files (x86)/codesourcery/sourcery g++ lite/bin/../lib/gcc/arm-none-eabi/4.4.1/thumb2\libgcc.a(_arm_truncdfsf2.o)
 .data          0x00000000        0x0 c:/program files (x86)/codesourcery/sourcery g++ lite/bin/../lib/gcc/arm-none-eabi/4.4.1/thumb2\libgcc.a(_arm_addsubsf3.o)
 .bss           0x00000000        0x0 c:/program files (x86)/codesourcery/sourcery g++ lite/bin/../lib/gcc/arm-none-eabi/4.4.1/thumb2\libgcc.a(_arm_addsubsf3.o)
 .data          0x00000000        0x0 c:/program files (x86)/codesourcery/sourcery g++ lite/bin/../lib/gcc/arm-none-eabi/4.4.1/thumb2\libgcc.a(_arm_muldivsf3.o)
 .bss           0x00000000        0x0 c:/program files (x86)/codesourcery/sourcery g++ lite/bin/../lib/gcc/arm-none-eabi/4.4.1/thumb2\libgcc.a(_arm_muldivsf3.o)
 .data          0x00000000        0x0 c:/program files (x86)/codesourcery/sourcery g++ lite/bin/../lib/gcc/arm-none-eabi/4.4.1/thumb2\libgcc.a(_arm_cmpsf2.o)
 .bss           0x00000000        0x0 c:/program files (x86)/codesourcery/sourcery g++ lite/bin/../lib/gcc/arm-none-eabi/4.4.1/thumb2\libgcc.a(_arm_cmpsf2.o)
 .data          0x00000000        0x0 c:/program files (x86)/codesourcery/sourcery g++ lite/bin/../lib/gcc/arm-none-eabi/4.4.1/thumb2\libgcc.a(_arm_fixsfsi.o)
 .bss           0x00000000        0x0 c:/program files (x86)/codesourcery/sourcery g++ lite/bin/../lib/gcc/arm-none-eabi/4.4.1/thumb2\libgcc.a(_arm_fixsfsi.o)
 .data          0x00000000        0x0 c:/program files (x86)/codesourcery/sourcery g++ lite/bin/../lib/gcc/arm-none-eabi/4.4.1/thumb2\libgcc.a(_aeabi_uldivmod.o)
 .bss           0x00000000        0x0 c:/program files (x86)/codesourcery/sourcery g++ lite/bin/../lib/gcc/arm-none-eabi/4.4.1/thumb2\libgcc.a(_aeabi_uldivmod.o)
 .data          0x00000000        0x0 c:/program files (x86)/codesourcery/sourcery g++ lite/bin/../lib/gcc/arm-none-eabi/4.4.1/thumb2\libgcc.a(bpabi.o)
 .bss           0x00000000        0x0 c:/program files (x86)/codesourcery/sourcery g++ lite/bin/../lib/gcc/arm-none-eabi/4.4.1/thumb2\libgcc.a(bpabi.o)
 .data          0x00000000        0x0 c:/program files (x86)/codesourcery/sourcery g++ lite/bin/../lib/gcc/arm-none-eabi/4.4.1/thumb2\libgcc.a(_divdi3.o)
 .bss           0x00000000        0x0 c:/program files (x86)/codesourcery/sourcery g++ lite/bin/../lib/gcc/arm-none-eabi/4.4.1/thumb2\libgcc.a(_divdi3.o)
 .ARM.extab     0x00000000        0x0 c:/program files (x86)/codesourcery/sourcery g++ lite/bin/../lib/gcc/arm-none-eabi/4.4.1/thumb2\libgcc.a(_divdi3.o)
 .data          0x00000000        0x0 c:/program files (x86)/codesourcery/sourcery g++ lite/bin/../lib/gcc/arm-none-eabi/4.4.1/thumb2\libgcc.a(_udivdi3.o)
 .bss           0x00000000        0x0 c:/program files (x86)/codesourcery/sourcery g++ lite/bin/../lib/gcc/arm-none-eabi/4.4.1/thumb2\libgcc.a(_udivdi3.o)
 .ARM.extab     0x00000000        0x0 c:/program files (x86)/codesourcery/sourcery g++ lite/bin/../lib/gcc/arm-none-eabi/4.4.1/thumb2\libgcc.a(_udivdi3.o)
 .text          0x00000000        0x0 c:/program files (x86)/codesourcery/sourcery g++ lite/bin/../lib/gcc/arm-none-eabi/4.4.1/thumb2/crtend.o
 .data          0x00000000        0x0 c:/program files (x86)/codesourcery/sourcery g++ lite/bin/../lib/gcc/arm-none-eabi/4.4.1/thumb2/crtend.o
 .bss           0x00000000        0x0 c:/program files (x86)/codesourcery/sourcery g++ lite/bin/../lib/gcc/arm-none-eabi/4.4.1/thumb2/crtend.o
 .text          0x00000000        0x0 c:/program files (x86)/codesourcery/sourcery g++ lite/bin/../lib/gcc/arm-none-eabi/4.4.1/thumb2/crtn.o
 .data          0x00000000        0x0 c:/program files (x86)/codesourcery/sourcery g++ lite/bin/../lib/gcc/arm-none-eabi/4.4.1/thumb2/crtn.o
 .bss           0x00000000        0x0 c:/program files (x86)/codesourcery/sourcery g++ lite/bin/../lib/gcc/arm-none-eabi/4.4.1/thumb2/crtn.o
 .data          0x00000000        0x0 c:/program files (x86)/codesourcery/sourcery g++ lite/bin/../lib/gcc/arm-none-eabi/4.4.1/../../../../arm-none-eabi/lib/thumb2\libcs3.a(start_c.o)
 .bss           0x00000000        0x0 c:/program files (x86)/codesourcery/sourcery g++ lite/bin/../lib/gcc/arm-none-eabi/4.4.1/../../../../arm-none-eabi/lib/thumb2\libcs3.a(start_c.o)
 .text          0x00000000        0x0 c:/program files (x86)/codesourcery/sourcery g++ lite/bin/../lib/gcc/arm-none-eabi/4.4.1/../../../../arm-none-eabi/lib/thumb2\libcs3unhosted.a(unhosted-start.o)
 .data          0x00000000        0x0 c:/program files (x86)/codesourcery/sourcery g++ lite/bin/../lib/gcc/arm-none-eabi/4.4.1/../../../../arm-none-eabi/lib/thumb2\libcs3unhosted.a(unhosted-start.o)
 .bss           0x00000000        0x0 c:/program files (x86)/codesourcery/sourcery g++ lite/bin/../lib/gcc/arm-none-eabi/4.4.1/../../../../arm-none-eabi/lib/thumb2\libcs3unhosted.a(unhosted-start.o)
 .data          0x00000000        0x0 c:/program files (x86)/codesourcery/sourcery g++ lite/bin/../lib/gcc/arm-none-eabi/4.4.1/../../../../arm-none-eabi/lib/thumb2\libc.a(lib_a-init.o)
 .bss           0x00000000        0x0 c:/program files (x86)/codesourcery/sourcery g++ lite/bin/../lib/gcc/arm-none-eabi/4.4.1/../../../../arm-none-eabi/lib/thumb2\libc.a(lib_a-init.o)

Memory Configuration

Name             Origin             Length             Attributes
rom              0x00010000         0x00070000         xr
ram              0x100000c8         0x00007f38         xrw
*default*        0x00000000         0xffffffff

Linker script and memory map

LOAD c:/program files (x86)/codesourcery/sourcery g++ lite/bin/../lib/gcc/arm-none-eabi/4.4.1/thumb2/crti.o
LOAD c:/program files (x86)/codesourcery/sourcery g++ lite/bin/../lib/gcc/arm-none-eabi/4.4.1/thumb2/crtbegin.o
LOAD c:/program files (x86)/codesourcery/sourcery g++ lite/bin/../lib/gcc/arm-none-eabi/4.4.1/thumb2\libgcc.a
LOAD c:/program files (x86)/codesourcery/sourcery g++ lite/bin/../lib/gcc/arm-none-eabi/4.4.1/../../../../arm-none-eabi/lib/thumb2\libstdc++.a
LOAD ..//common/Core/CM3/startup_LPC17xx.o
LOAD ..//Common/src/syscalls.o
LOAD ..//common/Core/CM3/core_cm3.o
LOAD ..//common/Core/CM3/system_LPC17xx.o
LOAD ..//common/src/lpc17xx_gpio.o
LOAD ..//common/src/lpc17xx_pinsel.o
LOAD ..//common/src/lpc17xx_timer.o
LOAD ..//common/src/debug_frmwrk.o
LOAD ..//common/src/lpc17xx_uart.o
LOAD ..//common/src/lpc17xx_clkpwr.o
LOAD ..//common/src/lpc17xx_nvic.o
LOAD ..//common/src/lpc17xx_qei.o
LOAD ..//common/src/lpc17xx_spi.o
LOAD ..//common/src/lpc17xx_ssp.o
LOAD ..//common/src/lpc17xx_i2c.o
LOAD ..//common/src/lpc17xx_rtc.o
LOAD ..//common/src/lpc17xx_emac.o
LOAD ..//common/src/delay.o
LOAD ..//common/src/mini_cpp.o
LOAD ..//drivers/timer/timer.o
LOAD ..//drivers/UART/uart.o
LOAD ..//drivers/USB/intenable.o
LOAD ..//drivers/USB/usbhw_lpc.o
LOAD ..//drivers/USB/serial_fifo.o
LOAD ..//drivers/USB/usbinit.o
LOAD ..//drivers/USB/usbcontrol.o
LOAD ..//drivers/USB/usbstdreq.o
LOAD ..//drivers/IAP/iap_driver.o
LOAD ..//drivers/SPI/ssp_master.o
LOAD ..//utils/ring_buffer/ring.o
LOAD ..//utils/ringbuf/RingBuf.o
LOAD ..//utils/printf/ee_printf-arg.o
LOAD ..//utils/input_output/input_output.o
LOAD ..//utils/multi-steppers/multi-steppers.o
LOAD ..//utils/i2ceeprom/i2c.o
LOAD ..//utils/i2ceeprom/i2c_eeprom.o
LOAD ..//utils/usbSerial/usbSerial.o
LOAD ..//utils/modbus/modbus.o
LOAD ..//PHY/interrupts.o
LOAD ..//PHY/main.o
LOAD ..//PHY/config_data.o
LOAD ..//utils/delay_timer/delay_timer.o
LOAD ..//utils/state_machine/state_machine.o
LOAD ..//utils/modbus/SimpleModbusSlave_1769.o
LOAD ..//PHY/state_machines/SM_Operation.o
LOAD c:/program files (x86)/codesourcery/sourcery g++ lite/bin/../lib/gcc/arm-none-eabi/4.4.1/../../../../arm-none-eabi/lib/thumb2\libstdc++.a
LOAD c:/program files (x86)/codesourcery/sourcery g++ lite/bin/../lib/gcc/arm-none-eabi/4.4.1/../../../../arm-none-eabi/lib/thumb2\libm.a
LOAD c:/program files (x86)/codesourcery/sourcery g++ lite/bin/../lib/gcc/arm-none-eabi/4.4.1/../../../../arm-none-eabi/lib/thumb2\libc.a
START GROUP
LOAD c:/program files (x86)/codesourcery/sourcery g++ lite/bin/../lib/gcc/arm-none-eabi/4.4.1/thumb2\libgcc.a
LOAD c:/program files (x86)/codesourcery/sourcery g++ lite/bin/../lib/gcc/arm-none-eabi/4.4.1/../../../../arm-none-eabi/lib/thumb2\libc.a
END GROUP
LOAD c:/program files (x86)/codesourcery/sourcery g++ lite/bin/../lib/gcc/arm-none-eabi/4.4.1/thumb2/crtend.o
LOAD c:/program files (x86)/codesourcery/sourcery g++ lite/bin/../lib/gcc/arm-none-eabi/4.4.1/thumb2/crtn.o
START GROUP
LOAD c:/program files (x86)/codesourcery/sourcery g++ lite/bin/../lib/gcc/arm-none-eabi/4.4.1/thumb2\libgcc.a
LOAD c:/program files (x86)/codesourcery/sourcery g++ lite/bin/../lib/gcc/arm-none-eabi/4.4.1/../../../../arm-none-eabi/lib/thumb2\libc.a
LOAD c:/program files (x86)/codesourcery/sourcery g++ lite/bin/../lib/gcc/arm-none-eabi/4.4.1/../../../../arm-none-eabi/lib/thumb2\libcs3.a
LOAD c:/program files (x86)/codesourcery/sourcery g++ lite/bin/../lib/gcc/arm-none-eabi/4.4.1/../../../../arm-none-eabi/lib/thumb2\libcs3unhosted.a
LOAD c:/program files (x86)/codesourcery/sourcery g++ lite/bin/../lib/gcc/arm-none-eabi/4.4.1/../../../../arm-none-eabi/lib/thumb2\libcs3micro.a
END GROUP
                0x10008000                PROVIDE (__cs3_stack, (__cs3_region_start_ram + __cs3_region_size_ram))
                0x00006048                PROVIDE (__cs3_stack_size, ((__cs3_region_start_ram + __cs3_region_size_ram) - _end))
                0x10001fb8                PROVIDE (__cs3_heap_start, _end)
                0x10008000                PROVIDE (__cs3_heap_end, (__cs3_region_start_ram + __cs3_region_size_ram))

.text           0x00010000    0x10348
 CREATE_OBJECT_SYMBOLS
                0x00010000                __cs3_region_start_rom = .
 *(.cs3.region-head.rom)
                0x00010000                __cs3_interrupt_vector = __cs3_interrupt_vector_cortex_m
 *(.cs3.interrupt_vector)
 .cs3.interrupt_vector
                0x00010000       0xc4 ..//common/Core/CM3/startup_LPC17xx.o
                0x00010000                __cs3_interrupt_vector_cortex_m
                0x00010001                ASSERT ((. != __cs3_interrupt_vector_cortex_m), No interrupt vector)
 *(.rom)
 *(.rom.b)
                0x000100c4                __cs3_reset = __cs3_reset_cortex_m
 *(.cs3.reset)
 .cs3.reset     0x000100c4       0x10 ..//common/Core/CM3/startup_LPC17xx.o
                0x000100c4                __cs3_reset_cortex_m
                0x00010001                ASSERT ((. != __cs3_reset), No reset code)
 *(.text .text.* .gnu.linkonce.t.*)
 .text          0x000100d4       0x30 c:/program files (x86)/codesourcery/sourcery g++ lite/bin/../lib/gcc/arm-none-eabi/4.4.1/thumb2/crtbegin.o
 .text          0x00010104       0x14 ..//common/Core/CM3/startup_LPC17xx.o
                0x00010104                NMI_Handler
                0x00010106                HardFault_Handler
                0x00010108                MemManage_Handler
                0x0001010a                BusFault_Handler
                0x0001010c                UsageFault_Handler
                0x0001010e                SVC_Handler
                0x00010110                DebugMon_Handler
                0x00010112                PendSV_Handler
                0x00010114                SysTick_Handler
                0x00010116                EINT3_IRQHandler
                0x00010116                UART1_IRQHandler
                0x00010116                EINT2_IRQHandler
                0x00010116                PLL0_IRQHandler
                0x00010116                CAN_IRQHandler
                0x00010116                PLL1_IRQHandler
                0x00010116                SSP0_IRQHandler
                0x00010116                PWM1_IRQHandler
                0x00010116                I2C2_IRQHandler
                0x00010116                RTC_IRQHandler
                0x00010116                SPI_IRQHandler
                0x00010116                EINT1_IRQHandler
                0x00010116                Default_Handler
                0x00010116                ADC_IRQHandler
                0x00010116                SSP1_IRQHandler
                0x00010116                BOD_IRQHandler
                0x00010116                I2C1_IRQHandler
                0x00010116                WDT_IRQHandler
                0x00010116                RIT_IRQHandler
                0x00010116                QEI_IRQHandler
                0x00010116                EINT0_IRQHandler
                0x00010116                DMA_IRQHandler
                0x00010116                I2S_IRQHandler
                0x00010116                MCPWM_IRQHandler
                0x00010116                ENET_IRQHandler
 .text._kill    0x00010118       0x28 ..//Common/src/syscalls.o
                0x00010118                _kill
 .text._exit    0x00010140        0xc ..//Common/src/syscalls.o
                0x00010140                _exit
 .text._getpid  0x0001014c       0x10 ..//Common/src/syscalls.o
                0x0001014c                _getpid
 .text.get_stack_top
                0x0001015c       0x14 ..//Common/src/syscalls.o
                0x0001015c                get_stack_top
 .text._sbrk    0x00010170       0x84 ..//Common/src/syscalls.o
                0x00010170                _sbrk
 .text._close   0x000101f4       0x18 ..//Common/src/syscalls.o
                0x000101f4                _close
 .text._fstat   0x0001020c       0x24 ..//Common/src/syscalls.o
                0x0001020c                _fstat
 .text._isatty  0x00010230       0x18 ..//Common/src/syscalls.o
                0x00010230                _isatty
 .text._lseek   0x00010248       0x1c ..//Common/src/syscalls.o
                0x00010248                _lseek
 .text._read    0x00010264       0x1c ..//Common/src/syscalls.o
                0x00010264                _read
 .text._write   0x00010280       0x3c ..//Common/src/syscalls.o
                0x00010280                _write
 .text.__get_MSP
                0x000102bc       0x10 ..//common/Core/CM3/core_cm3.o
                0x000102bc                __get_MSP
 .text.SystemInit
                0x000102cc      0x214 ..//common/Core/CM3/system_LPC17xx.o
                0x000102cc                SystemInit
 .text.GPIO_GetPointer
                0x000104e0       0x78 ..//common/src/lpc17xx_gpio.o
 .text.GPIO_SetDir
                0x00010558       0x58 ..//common/src/lpc17xx_gpio.o
                0x00010558                GPIO_SetDir
 .text.GPIO_SetValue
                0x000105b0       0x34 ..//common/src/lpc17xx_gpio.o
                0x000105b0                GPIO_SetValue
 .text.GPIO_ClearValue
                0x000105e4       0x34 ..//common/src/lpc17xx_gpio.o
                0x000105e4                GPIO_ClearValue
 .text.GPIO_ReadValue
                0x00010618       0x38 ..//common/src/lpc17xx_gpio.o
                0x00010618                GPIO_ReadValue
 .text.set_PinFunc
                0x00010650       0xa0 ..//common/src/lpc17xx_pinsel.o
 .text.set_ResistorMode
                0x000106f0       0xa0 ..//common/src/lpc17xx_pinsel.o
 .text.set_OpenDrainMode
                0x00010790       0x80 ..//common/src/lpc17xx_pinsel.o
 .text.PINSEL_ConfigPin
                0x00010810       0x64 ..//common/src/lpc17xx_pinsel.o
                0x00010810                PINSEL_ConfigPin
 .text.getPClock
                0x00010874       0x80 ..//common/src/lpc17xx_timer.o
 .text.converUSecToVal
                0x000108f4       0x70 ..//common/src/lpc17xx_timer.o
 .text.converPtrToTimeNum
                0x00010964       0x74 ..//common/src/lpc17xx_timer.o
 .text.TIM_ClearIntPending
                0x000109d8       0x2c ..//common/src/lpc17xx_timer.o
                0x000109d8                TIM_ClearIntPending
 .text.TIM_Init
                0x00010a04      0x18c ..//common/src/lpc17xx_timer.o
                0x00010a04                TIM_Init
 .text.TIM_Cmd  0x00010b90       0x38 ..//common/src/lpc17xx_timer.o
                0x00010b90                TIM_Cmd
 .text.TIM_ResetCounter
                0x00010bc8       0x2c ..//common/src/lpc17xx_timer.o
                0x00010bc8                TIM_ResetCounter
 .text.TIM_ConfigMatch
                0x00010bf4      0x150 ..//common/src/lpc17xx_timer.o
                0x00010bf4                TIM_ConfigMatch
 .text.UARTPutChar
                0x00010d44       0x30 ..//common/src/debug_frmwrk.o
                0x00010d44                UARTPutChar
 .text.UARTGetChar
                0x00010d74       0x34 ..//common/src/debug_frmwrk.o
                0x00010d74                UARTGetChar
 .text.UARTPuts
                0x00010da8       0x3c ..//common/src/debug_frmwrk.o
                0x00010da8                UARTPuts
 .text.UARTPuts_
                0x00010de4       0x34 ..//common/src/debug_frmwrk.o
                0x00010de4                UARTPuts_
 .text.UARTPutDec
                0x00010e18       0xe8 ..//common/src/debug_frmwrk.o
                0x00010e18                UARTPutDec
 .text.UARTPutDec16
                0x00010f00      0x188 ..//common/src/debug_frmwrk.o
                0x00010f00                UARTPutDec16
 .text.UARTPutDec32
                0x00011088      0x300 ..//common/src/debug_frmwrk.o
                0x00011088                UARTPutDec32
 .text.UARTPutHex
                0x00011388       0x80 ..//common/src/debug_frmwrk.o
                0x00011388                UARTPutHex
 .text.UARTPutHex16
                0x00011408       0x80 ..//common/src/debug_frmwrk.o
                0x00011408                UARTPutHex16
 .text.UARTPutHex32
                0x00011488       0x80 ..//common/src/debug_frmwrk.o
                0x00011488                UARTPutHex32
 .text.debug_frmwrk_init
                0x00011508      0x148 ..//common/src/debug_frmwrk.o
                0x00011508                debug_frmwrk_init
 .text.uart_set_divisors
                0x00011650      0x28c ..//common/src/lpc17xx_uart.o
                0x00011650                uart_set_divisors
 .text.UART_Init
                0x000118dc      0x2ac ..//common/src/lpc17xx_uart.o
                0x000118dc                UART_Init
 .text.UART_ConfigStructInit
                0x00011b88       0x34 ..//common/src/lpc17xx_uart.o
                0x00011b88                UART_ConfigStructInit
 .text.UART_SendByte
                0x00011bbc       0x34 ..//common/src/lpc17xx_uart.o
                0x00011bbc                UART_SendByte
 .text.UART_ReceiveByte
                0x00011bf0       0x30 ..//common/src/lpc17xx_uart.o
                0x00011bf0                UART_ReceiveByte
 .text.UART_Send
                0x00011c20      0x118 ..//common/src/lpc17xx_uart.o
                0x00011c20                UART_Send
 .text.UART_Receive
                0x00011d38       0xe4 ..//common/src/lpc17xx_uart.o
                0x00011d38                UART_Receive
 .text.UART_TxCmd
                0x00011e1c       0x90 ..//common/src/lpc17xx_uart.o
                0x00011e1c                UART_TxCmd
 .text.CLKPWR_SetPCLKDiv
                0x00011eac       0xcc ..//common/src/lpc17xx_clkpwr.o
                0x00011eac                CLKPWR_SetPCLKDiv
 .text.CLKPWR_GetPCLKSEL
                0x00011f78       0x54 ..//common/src/lpc17xx_clkpwr.o
                0x00011f78                CLKPWR_GetPCLKSEL
 .text.CLKPWR_GetPCLK
                0x00011fcc       0x74 ..//common/src/lpc17xx_clkpwr.o
                0x00011fcc                CLKPWR_GetPCLK
 .text.CLKPWR_ConfigPPWR
                0x00012040       0x7c ..//common/src/lpc17xx_clkpwr.o
                0x00012040                CLKPWR_ConfigPPWR
 .text.NVIC_EnableIRQ
                0x000120bc       0x38 ..//common/src/lpc17xx_i2c.o
 .text.NVIC_DisableIRQ
                0x000120f4       0x3c ..//common/src/lpc17xx_i2c.o
 .text.I2C_DeInit
                0x00012130       0x7c ..//common/src/lpc17xx_i2c.o
                0x00012130                I2C_DeInit
 .text.I2C_Cmd  0x000121ac       0x30 ..//common/src/lpc17xx_i2c.o
                0x000121ac                I2C_Cmd
 .text.I2C_IntCmd
                0x000121dc       0xd0 ..//common/src/lpc17xx_i2c.o
                0x000121dc                I2C_IntCmd
 .text.few_ticks
                0x000122ac       0xc8 ..//common/src/delay.o
                0x000122ac                few_ticks
 .text._delay_us
                0x00012374       0x34 ..//common/src/delay.o
                0x00012374                _delay_us
 .text._delay_ms
                0x000123a8       0x28 ..//common/src/delay.o
                0x000123a8                _delay_ms
 .text._ZdlPv   0x000123d0       0x1c ..//common/src/mini_cpp.o
                0x000123d0                operator delete(void*)
 .text.__aeabi_atexit
                0x000123ec       0x1c ..//common/src/mini_cpp.o
                0x000123ec                __aeabi_atexit
 .text.NVIC_EnableIRQ
                0x00012408       0x38 ..//drivers/timer/timer.o
 .text.NVIC_SetPriority
                0x00012440       0x5c ..//drivers/timer/timer.o
 .text.enable_timer
                0x0001249c       0xa8 ..//drivers/timer/timer.o
                0x0001249c                enable_timer
 .text.reset_timer
                0x00012544       0x98 ..//drivers/timer/timer.o
                0x00012544                reset_timer
 .text.init_timer0_freq
                0x000125dc       0xdc ..//drivers/timer/timer.o
                0x000125dc                init_timer0_freq
 .text.init_timer1_freq
                0x000126b8       0xdc ..//drivers/timer/timer.o
                0x000126b8                init_timer1_freq
 .text.init_timer2_freq
                0x00012794       0xdc ..//drivers/timer/timer.o
                0x00012794                init_timer2_freq
 .text.init_timer3_freq
                0x00012870       0xdc ..//drivers/timer/timer.o
                0x00012870                init_timer3_freq
 .text.UART0_IRQHandler
                0x0001294c       0xdc ..//drivers/UART/uart.o
                0x0001294c                UART0_IRQHandler
 .text.UART2_IRQHandler
                0x00012a28      0x160 ..//drivers/UART/uart.o
                0x00012a28                UART2_IRQHandler
 .text.UART3_IRQHandler
                0x00012b88      0x138 ..//drivers/UART/uart.o
                0x00012b88                UART3_IRQHandler
 .text.Uart_PutCharBuf2
                0x00012cc0       0x64 ..//drivers/UART/uart.o
                0x00012cc0                Uart_PutCharBuf2
 .text.Uart_StartSending2
                0x00012d24       0x50 ..//drivers/UART/uart.o
                0x00012d24                Uart_StartSending2
 .text.Uart_SendCharArray2
                0x00012d74       0x58 ..//drivers/UART/uart.o
                0x00012d74                Uart_SendCharArray2
 .text.Uart_GetC2
                0x00012dcc       0x30 ..//drivers/UART/uart.o
                0x00012dcc                Uart_GetC2
 .text.Uart_ChkRcv2
                0x00012dfc       0x1c ..//drivers/UART/uart.o
                0x00012dfc                Uart_ChkRcv2
 .text.uart2TxRxEnable
                0x00012e18       0x20 ..//drivers/UART/uart.o
                0x00012e18                uart2TxRxEnable
 .text.Wait4DevInt
                0x00012e38       0x38 ..//drivers/USB/usbhw_lpc.o
 .text.USBHwCmd
                0x00012e70       0x48 ..//drivers/USB/usbhw_lpc.o
 .text.USBHwCmdWrite
                0x00012eb8       0x48 ..//drivers/USB/usbhw_lpc.o
 .text.USBHwCmdRead
                0x00012f00       0x54 ..//drivers/USB/usbhw_lpc.o
 .text.USBHwEPRealize
                0x00012f54       0x64 ..//drivers/USB/usbhw_lpc.o
 .text.USBHwEPEnable
                0x00012fb8       0x3c ..//drivers/USB/usbhw_lpc.o
 .text.USBHwEPConfig
                0x00012ff4       0x50 ..//drivers/USB/usbhw_lpc.o
                0x00012ff4                USBHwEPConfig
 .text.USBHwRegisterEPIntHandler
                0x00013044       0x8c ..//drivers/USB/usbhw_lpc.o
                0x00013044                USBHwRegisterEPIntHandler
 .text.USBHwRegisterDevIntHandler
                0x000130d0       0x3c ..//drivers/USB/usbhw_lpc.o
                0x000130d0                USBHwRegisterDevIntHandler
 .text.USBHwRegisterFrameHandler
                0x0001310c       0x3c ..//drivers/USB/usbhw_lpc.o
                0x0001310c                USBHwRegisterFrameHandler
 .text.USBHwSetAddress
                0x00013148       0x30 ..//drivers/USB/usbhw_lpc.o
                0x00013148                USBHwSetAddress
 .text.USBHwConnect
                0x00013178       0x2c ..//drivers/USB/usbhw_lpc.o
                0x00013178                USBHwConnect
 .text.USBHwNakIntEnable
                0x000131a4       0x24 ..//drivers/USB/usbhw_lpc.o
                0x000131a4                USBHwNakIntEnable
 .text.USBHwEPGetStatus
                0x000131c8       0x40 ..//drivers/USB/usbhw_lpc.o
                0x000131c8                USBHwEPGetStatus
 .text.USBHwEPStall
                0x00013208       0x50 ..//drivers/USB/usbhw_lpc.o
                0x00013208                USBHwEPStall
 .text.USBHwEPWrite
                0x00013258       0xd8 ..//drivers/USB/usbhw_lpc.o
                0x00013258                USBHwEPWrite
 .text.USBHwEPRead
                0x00013330      0x108 ..//drivers/USB/usbhw_lpc.o
                0x00013330                USBHwEPRead
 .text.USBHwConfigDevice
                0x00013438       0x2c ..//drivers/USB/usbhw_lpc.o
                0x00013438                USBHwConfigDevice
 .text.USBHwISR
                0x00013464      0x1a8 ..//drivers/USB/usbhw_lpc.o
                0x00013464                USBHwISR
 .text.USBHwInit
                0x0001360c      0x11c ..//drivers/USB/usbhw_lpc.o
                0x0001360c                USBHwInit
 .text.fifo_init
                0x00013728       0x2c ..//drivers/USB/serial_fifo.o
                0x00013728                fifo_init
 .text.fifo_put
                0x00013754       0x60 ..//drivers/USB/serial_fifo.o
                0x00013754                fifo_put
 .text.fifo_get
                0x000137b4       0x64 ..//drivers/USB/serial_fifo.o
                0x000137b4                fifo_get
 .text.fifo_avail
                0x00013818       0x3c ..//drivers/USB/serial_fifo.o
                0x00013818                fifo_avail
 .text.fifo_free
                0x00013854       0x28 ..//drivers/USB/serial_fifo.o
                0x00013854                fifo_free
 .text.HandleUsbReset
                0x0001387c       0x14 ..//drivers/USB/usbinit.o
 .text.USBInit  0x00013890       0x98 ..//drivers/USB/usbinit.o
                0x00013890                USBInit
 .text._HandleRequest
                0x00013928       0x50 ..//drivers/USB/usbcontrol.o
 .text.StallControlPipe
                0x00013978       0x44 ..//drivers/USB/usbcontrol.o
 .text.DataIn   0x000139bc       0x70 ..//drivers/USB/usbcontrol.o
 .text.USBHandleControlTransfer
                0x00013a2c      0x260 ..//drivers/USB/usbcontrol.o
                0x00013a2c                USBHandleControlTransfer
 .text.USBRegisterRequestHandler
                0x00013c8c       0x38 ..//drivers/USB/usbcontrol.o
                0x00013c8c                USBRegisterRequestHandler
 .text.USBRegisterDescriptors
                0x00013cc4       0x20 ..//drivers/USB/usbstdreq.o
                0x00013cc4                USBRegisterDescriptors
 .text.USBGetDescriptor
                0x00013ce4       0xb0 ..//drivers/USB/usbstdreq.o
                0x00013ce4                USBGetDescriptor
 .text.USBSetConfiguration
                0x00013d94       0xe4 ..//drivers/USB/usbstdreq.o
 .text.HandleStdDeviceReq
                0x00013e78      0x104 ..//drivers/USB/usbstdreq.o
 .text.HandleStdInterfaceReq
                0x00013f7c       0xb4 ..//drivers/USB/usbstdreq.o
 .text.HandleStdEndPointReq
                0x00014030       0xf4 ..//drivers/USB/usbstdreq.o
 .text.USBHandleStandardRequest
                0x00014124       0x98 ..//drivers/USB/usbstdreq.o
                0x00014124                USBHandleStandardRequest
 .text.iap_init
                0x000141bc       0x30 ..//drivers/IAP/iap_driver.o
                0x000141bc                iap_init
 .text.ring_init
                0x000141ec       0x3c ..//utils/ring_buffer/ring.o
                0x000141ec                ring_init
 .text.ring_is_full
                0x00014228       0x4c ..//utils/ring_buffer/ring.o
                0x00014228                ring_is_full
 .text.ring_is_empty
                0x00014274       0x2c ..//utils/ring_buffer/ring.o
                0x00014274                ring_is_empty
 .text.ring_putc
                0x000142a0       0x60 ..//utils/ring_buffer/ring.o
                0x000142a0                ring_putc
 .text.ring_getc
                0x00014300       0x7c ..//utils/ring_buffer/ring.o
                0x00014300                ring_getc
 .text.ring_clear
                0x0001437c       0x24 ..//utils/ring_buffer/ring.o
                0x0001437c                ring_clear
 .text.ee_strnlen
                0x000143a0       0x4c ..//utils/printf/ee_printf-arg.o
 .text.ee_skip_atoi
                0x000143ec       0x58 ..//utils/printf/ee_printf-arg.o
 .text.ee_number
                0x00014444      0x2e4 ..//utils/printf/ee_printf-arg.o
 .text.eaddr    0x00014728      0x15c ..//utils/printf/ee_printf-arg.o
 .text.iaddr    0x00014884      0x28c ..//utils/printf/ee_printf-arg.o
 .text.ee_bufcpy
                0x00014b10       0x40 ..//utils/printf/ee_printf-arg.o
 .text.parse_float
                0x00014b50      0x424 ..//utils/printf/ee_printf-arg.o
 .text.decimal_point
                0x00014f74       0xa0 ..//utils/printf/ee_printf-arg.o
 .text.cropzeros
                0x00015014       0xb0 ..//utils/printf/ee_printf-arg.o
 .text.flt      0x000150c4      0x27c ..//utils/printf/ee_printf-arg.o
 .text.ee_vsprintf
                0x00015340      0x590 ..//utils/printf/ee_printf-arg.o
 .text.uart_send_char
                0x000158d0       0x34 ..//utils/printf/ee_printf-arg.o
                0x000158d0                uart_send_char
 .text.printf   0x00015904       0x94 ..//utils/printf/ee_printf-arg.o
                0x00015904                printf
 .text.io_update
                0x00015998      0x24c ..//utils/input_output/input_output.o
                0x00015998                io_update
 .text.io_init  0x00015be4      0x128 ..//utils/input_output/input_output.o
                0x00015be4                io_init
 .text.io_read_input
                0x00015d0c       0x34 ..//utils/input_output/input_output.o
                0x00015d0c                io_read_input
 .text.io_configure
                0x00015d40       0x54 ..//utils/input_output/input_output.o
                0x00015d40                io_configure
 .text.io_set_output
                0x00015d94       0x5c ..//utils/input_output/input_output.o
                0x00015d94                io_set_output
 .text.GPIO_Read
                0x00015df0       0x3c ..//utils/input_output/input_output.o
                0x00015df0                GPIO_Read
 .text.GPIO_Configure
                0x00015e2c       0x54 ..//utils/input_output/input_output.o
                0x00015e2c                GPIO_Configure
 .text.GPIO_Set
                0x00015e80       0x38 ..//utils/input_output/input_output.o
                0x00015e80                GPIO_Set
 .text.GPIO_Clear
                0x00015eb8       0x38 ..//utils/input_output/input_output.o
                0x00015eb8                GPIO_Clear
 .text.Move_Motor
                0x00015ef0       0x2c ..//utils/multi-steppers/multi-steppers.o
                0x00015ef0                Move_Motor
 .text.Make_Pulses
                0x00015f1c       0x24 ..//utils/multi-steppers/multi-steppers.o
                0x00015f1c                Make_Pulses
 .text.Pulse_Clear
                0x00015f40       0x28 ..//utils/multi-steppers/multi-steppers.o
                0x00015f40                Pulse_Clear
 .text.stepper_make_pulses
                0x00015f68      0x15c ..//utils/multi-steppers/multi-steppers.o
                0x00015f68                stepper_make_pulses
 *fill*         0x000160c4        0x4 00
 .text.stepper_update_freq
                0x000160c8      0x708 ..//utils/multi-steppers/multi-steppers.o
                0x000160c8                stepper_update_freq
 .text.stepper_stop_distance
                0x000167d0       0x68 ..//utils/multi-steppers/multi-steppers.o
                0x000167d0                stepper_stop_distance
 .text.stepper_next_position
                0x00016838      0x51c ..//utils/multi-steppers/multi-steppers.o
                0x00016838                stepper_next_position
 *fill*         0x00016d54        0x4 00
 .text.stepper_init_pulse_generator_single_axis
                0x00016d58      0x428 ..//utils/multi-steppers/multi-steppers.o
                0x00016d58                stepper_init_pulse_generator_single_axis
 .text.stepper_init_pulse_generator
                0x00017180      0x148 ..//utils/multi-steppers/multi-steppers.o
                0x00017180                stepper_init_pulse_generator
 .text.stepper_init_profiler
                0x000172c8       0x84 ..//utils/multi-steppers/multi-steppers.o
                0x000172c8                stepper_init_profiler
 .text.stepper_init_all_profilers
                0x0001734c       0x54 ..//utils/multi-steppers/multi-steppers.o
                0x0001734c                stepper_init_all_profilers
 .text.stepper_init
                0x000173a0       0x20 ..//utils/multi-steppers/multi-steppers.o
                0x000173a0                stepper_init
 .text.stepper_move_motor
                0x000173c0       0x68 ..//utils/multi-steppers/multi-steppers.o
                0x000173c0                stepper_move_motor
 .text.stepper_stop_motor
                0x00017428       0x6c ..//utils/multi-steppers/multi-steppers.o
                0x00017428                stepper_stop_motor
 .text.stepper_set_new_profile
                0x00017494       0x6c ..//utils/multi-steppers/multi-steppers.o
                0x00017494                stepper_set_new_profile
 .text.stepper_set_final_pos
                0x00017500       0x3c ..//utils/multi-steppers/multi-steppers.o
                0x00017500                stepper_set_final_pos
 .text.stepper_get_cur_pos
                0x0001753c       0x7c ..//utils/multi-steppers/multi-steppers.o
                0x0001753c                stepper_get_cur_pos
 .text.ulceil   0x000175b8       0x38 ..//utils/multi-steppers/multi-steppers.o
 .text.I2C0_IRQHandler
                0x000175f0      0x4c4 ..//utils/i2ceeprom/i2c.o
                0x000175f0                I2C0_IRQHandler
 .text.I2CStart
                0x00017ab4       0x60 ..//utils/i2ceeprom/i2c.o
 .text.I2CStop  0x00017b14       0x70 ..//utils/i2ceeprom/i2c.o
 .text.I2CInit  0x00017b84      0x114 ..//utils/i2ceeprom/i2c.o
                0x00017b84                I2CInit
 .text.I2CDeinit
                0x00017c98       0x20 ..//utils/i2ceeprom/i2c.o
                0x00017c98                I2CDeinit
 .text.I2CEngine
                0x00017cb8       0x6c ..//utils/i2ceeprom/i2c.o
                0x00017cb8                I2CEngine
 .text.i2cEEPROM_write8
                0x00017d24      0x1e0 ..//utils/i2ceeprom/i2c_eeprom.o
                0x00017d24                i2cEEPROM_write8
 .text.i2cEEPROM_read8
                0x00017f04      0x274 ..//utils/i2ceeprom/i2c_eeprom.o
                0x00017f04                i2cEEPROM_read8
 .text.NVIC_EnableIRQ
                0x00018178       0x38 ..//utils/usbSerial/usbSerial.o
 .text.BulkOut  0x000181b0       0x88 ..//utils/usbSerial/usbSerial.o
 .text.BulkIn   0x00018238       0xa0 ..//utils/usbSerial/usbSerial.o
 .text.HandleClassRequest
                0x000182d8       0x84 ..//utils/usbSerial/usbSerial.o
 .text.VCOM_init
                0x0001835c       0x3c ..//utils/usbSerial/usbSerial.o
                0x0001835c                VCOM_init
 .text.VCOM_putchar
                0x00018398       0x38 ..//utils/usbSerial/usbSerial.o
                0x00018398                VCOM_putchar
 .text.VCOM_ChkRcv
                0x000183d0       0x1c ..//utils/usbSerial/usbSerial.o
                0x000183d0                VCOM_ChkRcv
 .text.VCOM_GetCh
                0x000183ec       0x30 ..//utils/usbSerial/usbSerial.o
                0x000183ec                VCOM_GetCh
 .text.USB_IRQHandler
                0x0001841c       0x10 ..//utils/usbSerial/usbSerial.o
                0x0001841c                USB_IRQHandler
 .text.USBFrameHandler
                0x0001842c       0x38 ..//utils/usbSerial/usbSerial.o
 .text.usbSerialInit
                0x00018464       0xd4 ..//utils/usbSerial/usbSerial.o
                0x00018464                usbSerialInit
 .text.modUSB_init
                0x00018538       0x48 ..//utils/usbSerial/usbSerial.o
                0x00018538                modUSB_init
 .text.getUartdata
                0x00018580       0xe0 ..//utils/modbus/modbus.o
                0x00018580                getUartdata
 .text.checkModbusData
                0x00018660       0x38 ..//utils/modbus/modbus.o
                0x00018660                checkModbusData
 .text.modInit  0x00018698       0x3c ..//utils/modbus/modbus.o
                0x00018698                modInit
 .text.TIMER3_IRQHandler
                0x000186d4       0x54 ..//PHY/interrupts.o
                0x000186d4                TIMER3_IRQHandler
 .text.TIMER1_IRQHandler
                0x00018728       0x28 ..//PHY/interrupts.o
                0x00018728                TIMER1_IRQHandler
 .text.TIMER2_IRQHandler
                0x00018750       0x28 ..//PHY/interrupts.o
                0x00018750                TIMER2_IRQHandler
 .text.TIMER0_IRQHandler
                0x00018778      0x17c ..//PHY/interrupts.o
                0x00018778                TIMER0_IRQHandler
 .text.init_timers
                0x000188f4       0x44 ..//PHY/interrupts.o
                0x000188f4                init_timers
 .text.start_timers
                0x00018938       0x50 ..//PHY/interrupts.o
                0x00018938                start_timers
 .text._ZN13State_MachineD2Ev
                0x00018988       0x34 ..//PHY/main.o
                0x00018988                State_Machine::~State_Machine()
 .text.main     0x000189bc      0x3a0 ..//PHY/main.o
                0x000189bc                main
 .text._Z40set_holding_registers_values_accel_tableii
                0x00018d5c       0x1c ..//PHY/main.o
                0x00018d5c                set_holding_registers_values_accel_table(int, int)
 .text.set_holding_registers_values
                0x00018d78       0x20 ..//PHY/main.o
                0x00018d78                set_holding_registers_values
 .text._Z20execute_eeprom_writei
                0x00018d98       0xa8 ..//PHY/main.o
                0x00018d98                execute_eeprom_write(int)
 .text.apply_modbus_values
                0x00018e40       0x18 ..//PHY/main.o
                0x00018e40                apply_modbus_values
 .text.update_sm_operation_every_1ms
                0x00018e58       0x3c ..//PHY/main.o
                0x00018e58                update_sm_operation_every_1ms
 .text._ZN12SM_OPERATIOND1Ev
                0x00018e94       0x44 ..//PHY/main.o
                0x00018e94                SM_OPERATION::~SM_OPERATION()
 .text._Z41__static_initialization_and_destruction_0ii
                0x00018ed8       0xa8 ..//PHY/main.o
 .text._GLOBAL__I_delay_timer_32
                0x00018f80       0x18 ..//PHY/main.o
 .text._Z20write_objects_eepromsPvi
                0x00018f98      0x13c ..//PHY/config_data.o
                0x00018f98                write_objects_eeprom(short, void*, int)
 .text._Z19read_objects_eepromsPvi
                0x000190d4      0x130 ..//PHY/config_data.o
                0x000190d4                read_objects_eeprom(short, void*, int)
 .text._Z19read_config_versionRhS_
                0x00019204      0x16c ..//PHY/config_data.o
                0x00019204                read_config_version(unsigned char&, unsigned char&)
 .text._Z16read_config_datav
                0x00019370       0x6c ..//PHY/config_data.o
                0x00019370                read_config_data()
 .text._Z17write_config_datav
                0x000193dc       0x44 ..//PHY/config_data.o
                0x000193dc                write_config_data()
 .text._Z25write_config_data_table_1v
                0x00019420       0x10 ..//PHY/config_data.o
                0x00019420                write_config_data_table_1()
 .text._Z25write_config_data_table_2v
                0x00019430       0x10 ..//PHY/config_data.o
                0x00019430                write_config_data_table_2()
 .text._Z25write_config_data_table_3v
                0x00019440       0x10 ..//PHY/config_data.o
                0x00019440                write_config_data_table_3()
 .text._Z19config_set_defaultshh
                0x00019450       0x58 ..//PHY/config_data.o
                0x00019450                config_set_defaults(unsigned char, unsigned char)
 .text._Z7dt_initv
                0x000194a8       0x18 ..//utils/delay_timer/delay_timer.o
                0x000194a8                dt_init()
 .text._ZL11value_checkv
                0x000194c0       0x60 ..//utils/delay_timer/delay_timer.o
 .text._ZL9is_timeupmm
                0x00019520       0x4c ..//utils/delay_timer/delay_timer.o
 .text._Z12dt_is_timeupi
                0x0001956c       0x40 ..//utils/delay_timer/delay_timer.o
                0x0001956c                dt_is_timeup(int)
 .text._Z8dt_reseti
                0x000195ac       0x34 ..//utils/delay_timer/delay_timer.o
                0x000195ac                dt_reset(int)
 .text._Z12dt_set_delayim
                0x000195e0       0x24 ..//utils/delay_timer/delay_timer.o
                0x000195e0                dt_set_delay(int, unsigned long)
 .text._ZN13State_MachineD1Ev
                0x00019604       0x34 ..//utils/state_machine/state_machine.o
                0x00019604                State_Machine::~State_Machine()
 .text._ZN13State_MachineD0Ev
                0x00019638       0x34 ..//utils/state_machine/state_machine.o
                0x00019638                State_Machine::~State_Machine()
 .text._ZN13State_MachineC2Ev
                0x0001966c       0x38 ..//utils/state_machine/state_machine.o
                0x0001966c                State_Machine::State_Machine()
 .text._ZN13State_Machine6updateEv
                0x000196a4       0x18 ..//utils/state_machine/state_machine.o
                0x000196a4                State_Machine::update()
 .text._ZN13State_Machine6updateEi
                0x000196bc       0x1c ..//utils/state_machine/state_machine.o
                0x000196bc                State_Machine::update(int)
 .text._ZN13State_Machine5resetEv
                0x000196d8       0x28 ..//utils/state_machine/state_machine.o
                0x000196d8                State_Machine::reset()
 .text._ZN13State_Machine10SM_startedEv
                0x00019700       0x18 ..//utils/state_machine/state_machine.o
                0x00019700                State_Machine::SM_started()
 .text._ZN13State_Machine8SM_startEv
                0x00019718       0x20 ..//utils/state_machine/state_machine.o
                0x00019718                State_Machine::SM_start()
 .text._ZN13State_Machine7SM_stopEv
                0x00019738       0x28 ..//utils/state_machine/state_machine.o
                0x00019738                State_Machine::SM_stop()
 .text._ZN13State_Machine8SM_pauseEi
                0x00019760       0x5c ..//utils/state_machine/state_machine.o
                0x00019760                State_Machine::SM_pause(int)
 .text._Z16modbus_configureP8modbus_tlijPj
                0x000197bc       0x78 ..//utils/modbus/SimpleModbusSlave_1769.o
                0x000197bc                modbus_configure(modbus_t*, long, int, unsigned int, unsigned int*)
 .text.modbus_update
                0x00019834      0x50c ..//utils/modbus/SimpleModbusSlave_1769.o
                0x00019834                modbus_update
 .text._Z17exceptionResponseP8modbus_th
                0x00019d40       0x7c ..//utils/modbus/SimpleModbusSlave_1769.o
                0x00019d40                exceptionResponse(modbus_t*, unsigned char)
 .text._Z12calculateCRCP8modbus_th
                0x00019dbc       0xb8 ..//utils/modbus/SimpleModbusSlave_1769.o
                0x00019dbc                calculateCRC(modbus_t*, unsigned char)
 .text._Z10sendPacketP8modbus_th
                0x00019e74       0x7c ..//utils/modbus/SimpleModbusSlave_1769.o
                0x00019e74                sendPacket(modbus_t*, unsigned char)
 .text._Z11getRegisterP8modbus_ti
                0x00019ef0       0x8c ..//utils/modbus/SimpleModbusSlave_1769.o
                0x00019ef0                getRegister(modbus_t*, int)
 .text._Z11setRegisterP8modbus_tii
                0x00019f7c       0x9c ..//utils/modbus/SimpleModbusSlave_1769.o
                0x00019f7c                setRegister(modbus_t*, int, int)
 .text._ZN12SM_OPERATIONC1Ev
                0x0001a018       0x44 ..//PHY/state_machines/SM_Operation.o
                0x0001a018                SM_OPERATION::SM_OPERATION()
 .text._ZN12SM_OPERATION6updateEv
                0x0001a05c      0x584 ..//PHY/state_machines/SM_Operation.o
                0x0001a05c                SM_OPERATION::update()
 .text._ZN12SM_OPERATIOND0Ev
                0x0001a5e0       0x44 ..//PHY/state_machines/SM_Operation.o
                0x0001a5e0                SM_OPERATION::~SM_OPERATION()
 *fill*         0x0001a624        0x4 00
 .text          0x0001a628      0x120 c:/program files (x86)/codesourcery/sourcery g++ lite/bin/../lib/gcc/arm-none-eabi/4.4.1/../../../../arm-none-eabi/lib/thumb2\libm.a(lib_a-s_ceil.o)
                0x0001a628                ceil
 .text          0x0001a748       0x10 c:/program files (x86)/codesourcery/sourcery g++ lite/bin/../lib/gcc/arm-none-eabi/4.4.1/../../../../arm-none-eabi/lib/thumb2\libc.a(lib_a-abort.o)
                0x0001a748                abort
 .text          0x0001a758      0x688 c:/program files (x86)/codesourcery/sourcery g++ lite/bin/../lib/gcc/arm-none-eabi/4.4.1/../../../../arm-none-eabi/lib/thumb2\libc.a(lib_a-ecvtbuf.o)
                0x0001a888                _gcvt
                0x0001aa90                ecvtbuf
                0x0001ab44                fcvtbuf
                0x0001ac34                _dcvt
 .text          0x0001ade0       0x20 c:/program files (x86)/codesourcery/sourcery g++ lite/bin/../lib/gcc/arm-none-eabi/4.4.1/../../../../arm-none-eabi/lib/thumb2\libc.a(lib_a-malloc.o)
                0x0001ade0                free
                0x0001adf0                malloc
 .text          0x0001ae00      0x5a4 c:/program files (x86)/codesourcery/sourcery g++ lite/bin/../lib/gcc/arm-none-eabi/4.4.1/../../../../arm-none-eabi/lib/thumb2\libc.a(lib_a-mallocr.o)
                0x0001ae00                _malloc_r
 .text          0x0001b3a4      0x190 c:/program files (x86)/codesourcery/sourcery g++ lite/bin/../lib/gcc/arm-none-eabi/4.4.1/../../../../arm-none-eabi/lib/thumb2\libc.a(lib_a-memcpy.o)
                0x0001b3a4                memcpy
 .text          0x0001b534       0xd4 c:/program files (x86)/codesourcery/sourcery g++ lite/bin/../lib/gcc/arm-none-eabi/4.4.1/../../../../arm-none-eabi/lib/thumb2\libc.a(lib_a-memset.o)
                0x0001b534                memset
 .text          0x0001b608        0x8 c:/program files (x86)/codesourcery/sourcery g++ lite/bin/../lib/gcc/arm-none-eabi/4.4.1/../../../../arm-none-eabi/lib/thumb2\libc.a(lib_a-mlock.o)
                0x0001b608                __malloc_lock
                0x0001b60c                __malloc_unlock
 .text          0x0001b610      0x958 c:/program files (x86)/codesourcery/sourcery g++ lite/bin/../lib/gcc/arm-none-eabi/4.4.1/../../../../arm-none-eabi/lib/thumb2\libc.a(lib_a-mprec.o)
                0x0001b610                __hi0bits
                0x0001b650                __lo0bits
                0x0001b6b4                __mcmp
                0x0001b6f4                __ulp
                0x0001b740                __b2d
                0x0001b7e8                __ratio
                0x0001b848                _mprec_log10
                0x0001b880                __copybits
                0x0001b8d0                __any_on
                0x0001b928                _Bfree
                0x0001b960                _Balloc
                0x0001b9cc                __d2b
                0x0001ba9c                __mdiff
                0x0001bb94                __lshift
                0x0001bc50                __multiply
                0x0001bd84                __i2b
                0x0001bd98                __multadd
                0x0001be20                __pow5mult
                0x0001becc                __s2b
 .text          0x0001bf68       0x88 c:/program files (x86)/codesourcery/sourcery g++ lite/bin/../lib/gcc/arm-none-eabi/4.4.1/../../../../arm-none-eabi/lib/thumb2\libc.a(lib_a-puts.o)
                0x0001bf68                _puts_r
                0x0001bfe0                puts
 .text          0x0001bff0      0x3b4 c:/program files (x86)/codesourcery/sourcery g++ lite/bin/../lib/gcc/arm-none-eabi/4.4.1/../../../../arm-none-eabi/lib/thumb2\libc.a(lib_a-reallocr.o)
                0x0001bff0                _realloc_r
 .text          0x0001c3a4       0x28 c:/program files (x86)/codesourcery/sourcery g++ lite/bin/../lib/gcc/arm-none-eabi/4.4.1/../../../../arm-none-eabi/lib/thumb2\libc.a(lib_a-sbrkr.o)
                0x0001c3a4                _sbrk_r
 .text          0x0001c3cc      0x14c c:/program files (x86)/codesourcery/sourcery g++ lite/bin/../lib/gcc/arm-none-eabi/4.4.1/../../../../arm-none-eabi/lib/thumb2\libc.a(lib_a-signal.o)
                0x0001c3cc                _raise_r
                0x0001c424                raise
                0x0001c434                _init_signal_r
                0x0001c45c                _init_signal
                0x0001c468                __sigtramp_r
                0x0001c4bc                __sigtramp
                0x0001c4cc                _signal_r
                0x0001c508                signal
 .text          0x0001c518       0x30 c:/program files (x86)/codesourcery/sourcery g++ lite/bin/../lib/gcc/arm-none-eabi/4.4.1/../../../../arm-none-eabi/lib/thumb2\libc.a(lib_a-signalr.o)
                0x0001c518                _getpid_r
                0x0001c51c                _kill_r
 .text          0x0001c548       0xbc c:/program files (x86)/codesourcery/sourcery g++ lite/bin/../lib/gcc/arm-none-eabi/4.4.1/../../../../arm-none-eabi/lib/thumb2\libc.a(lib_a-strcpy.o)
                0x0001c548                strcpy
 .text          0x0001c604       0x60 c:/program files (x86)/codesourcery/sourcery g++ lite/bin/../lib/gcc/arm-none-eabi/4.4.1/../../../../arm-none-eabi/lib/thumb2\libc.a(lib_a-strlen.o)
                0x0001c604                strlen
 .text          0x0001c664       0x5c c:/program files (x86)/codesourcery/sourcery g++ lite/bin/../lib/gcc/arm-none-eabi/4.4.1/../../../../arm-none-eabi/lib/thumb2\libc.a(lib_a-callocr.o)
                0x0001c664                _calloc_r
 .text          0x0001c6c0      0xfb8 c:/program files (x86)/codesourcery/sourcery g++ lite/bin/../lib/gcc/arm-none-eabi/4.4.1/../../../../arm-none-eabi/lib/thumb2\libc.a(lib_a-dtoa.o)
                0x0001c7e0                _dtoa_r
 .text          0x0001d678      0x1c8 c:/program files (x86)/codesourcery/sourcery g++ lite/bin/../lib/gcc/arm-none-eabi/4.4.1/../../../../arm-none-eabi/lib/thumb2\libc.a(lib_a-findfp.o)
                0x0001d678                __sfp_lock_acquire
                0x0001d67c                __sfp_lock_release
                0x0001d680                __sinit_lock_acquire
                0x0001d684                __sinit_lock_release
                0x0001d690                __fp_unlock_all
                0x0001d6a8                __fp_lock_all
                0x0001d6c0                _cleanup_r
                0x0001d6cc                _cleanup
                0x0001d728                __sfmoreglue
                0x0001d758                __sfp
                0x0001d7e0                __sinit
 .text          0x0001d840      0x268 c:/program files (x86)/codesourcery/sourcery g++ lite/bin/../lib/gcc/arm-none-eabi/4.4.1/../../../../arm-none-eabi/lib/thumb2\libc.a(lib_a-freer.o)
                0x0001d840                _malloc_trim_r
                0x0001d8e8                _free_r
 .text          0x0001daa8      0x334 c:/program files (x86)/codesourcery/sourcery g++ lite/bin/../lib/gcc/arm-none-eabi/4.4.1/../../../../arm-none-eabi/lib/thumb2\libc.a(lib_a-fvwrite.o)
                0x0001daa8                __sfvwrite_r
 .text          0x0001dddc       0xa0 c:/program files (x86)/codesourcery/sourcery g++ lite/bin/../lib/gcc/arm-none-eabi/4.4.1/../../../../arm-none-eabi/lib/thumb2\libc.a(lib_a-fwalk.o)
                0x0001dddc                _fwalk_reent
                0x0001de30                _fwalk
 .text          0x0001de7c       0x74 c:/program files (x86)/codesourcery/sourcery g++ lite/bin/../lib/gcc/arm-none-eabi/4.4.1/../../../../arm-none-eabi/lib/thumb2\libc.a(lib_a-memchr.o)
                0x0001de7c                memchr
 .text          0x0001def0       0xb8 c:/program files (x86)/codesourcery/sourcery g++ lite/bin/../lib/gcc/arm-none-eabi/4.4.1/../../../../arm-none-eabi/lib/thumb2\libc.a(lib_a-memmove.o)
                0x0001def0                memmove
 .text          0x0001dfa8       0x90 c:/program files (x86)/codesourcery/sourcery g++ lite/bin/../lib/gcc/arm-none-eabi/4.4.1/../../../../arm-none-eabi/lib/thumb2\libc.a(lib_a-stdio.o)
                0x0001dfa8                __sclose
                0x0001dfb0                __sseek
                0x0001dfd8                __swrite
                0x0001e014                __sread
 .text          0x0001e038       0x2c c:/program files (x86)/codesourcery/sourcery g++ lite/bin/../lib/gcc/arm-none-eabi/4.4.1/../../../../arm-none-eabi/lib/thumb2\libc.a(lib_a-writer.o)
                0x0001e038                _write_r
 .text          0x0001e064      0x104 c:/program files (x86)/codesourcery/sourcery g++ lite/bin/../lib/gcc/arm-none-eabi/4.4.1/../../../../arm-none-eabi/lib/thumb2\libc.a(lib_a-wsetup.o)
                0x0001e064                __swsetup_r
 .text          0x0001e168       0x28 c:/program files (x86)/codesourcery/sourcery g++ lite/bin/../lib/gcc/arm-none-eabi/4.4.1/../../../../arm-none-eabi/lib/thumb2\libc.a(lib_a-closer.o)
                0x0001e168                _close_r
 .text          0x0001e190       0xcc c:/program files (x86)/codesourcery/sourcery g++ lite/bin/../lib/gcc/arm-none-eabi/4.4.1/../../../../arm-none-eabi/lib/thumb2\libc.a(lib_a-fclose.o)
                0x0001e190                _fclose_r
                0x0001e24c                fclose
 .text          0x0001e25c      0x178 c:/program files (x86)/codesourcery/sourcery g++ lite/bin/../lib/gcc/arm-none-eabi/4.4.1/../../../../arm-none-eabi/lib/thumb2\libc.a(lib_a-fflush.o)
                0x0001e25c                _fflush_r
                0x0001e3ac                fflush
 .text          0x0001e3d4       0x2c c:/program files (x86)/codesourcery/sourcery g++ lite/bin/../lib/gcc/arm-none-eabi/4.4.1/../../../../arm-none-eabi/lib/thumb2\libc.a(lib_a-lseekr.o)
                0x0001e3d4                _lseek_r
 .text          0x0001e400       0xdc c:/program files (x86)/codesourcery/sourcery g++ lite/bin/../lib/gcc/arm-none-eabi/4.4.1/../../../../arm-none-eabi/lib/thumb2\libc.a(lib_a-makebuf.o)
                0x0001e400                __smakebuf_r
 .text          0x0001e4dc       0x2c c:/program files (x86)/codesourcery/sourcery g++ lite/bin/../lib/gcc/arm-none-eabi/4.4.1/../../../../arm-none-eabi/lib/thumb2\libc.a(lib_a-readr.o)
                0x0001e4dc                _read_r
 .text          0x0001e508       0x2c c:/program files (x86)/codesourcery/sourcery g++ lite/bin/../lib/gcc/arm-none-eabi/4.4.1/../../../../arm-none-eabi/lib/thumb2\libc.a(lib_a-fstatr.o)
                0x0001e508                _fstat_r
 .text          0x0001e534       0x28 c:/program files (x86)/codesourcery/sourcery g++ lite/bin/../lib/gcc/arm-none-eabi/4.4.1/../../../../arm-none-eabi/lib/thumb2\libc.a(lib_a-isattyr.o)
                0x0001e534                _isatty_r
 *fill*         0x0001e55c        0x4 00
 .text          0x0001e560      0x278 c:/program files (x86)/codesourcery/sourcery g++ lite/bin/../lib/gcc/arm-none-eabi/4.4.1/thumb2\libgcc.a(_udivsi3.o)
                0x0001e560                __aeabi_uidiv
                0x0001e560                __udivsi3
                0x0001e7bc                __aeabi_uidivmod
 .text          0x0001e7d8        0x4 c:/program files (x86)/codesourcery/sourcery g++ lite/bin/../lib/gcc/arm-none-eabi/4.4.1/thumb2\libgcc.a(_dvmd_tls.o)
                0x0001e7d8                __aeabi_idiv0
                0x0001e7d8                __aeabi_ldiv0
 .text          0x0001e7dc      0x370 c:/program files (x86)/codesourcery/sourcery g++ lite/bin/../lib/gcc/arm-none-eabi/4.4.1/thumb2\libgcc.a(_arm_addsubdf3.o)
                0x0001e7dc                __aeabi_drsub
                0x0001e7e4                __aeabi_dsub
                0x0001e7e4                __subdf3
                0x0001e7e8                __aeabi_dadd
                0x0001e7e8                __adddf3
                0x0001ea60                __floatunsidf
                0x0001ea60                __aeabi_ui2d
                0x0001ea80                __floatsidf
                0x0001ea80                __aeabi_i2d
                0x0001eaa4                __aeabi_f2d
                0x0001eaa4                __extendsfdf2
                0x0001eae0                __floatundidf
                0x0001eae0                __aeabi_ul2d
                0x0001eaf0                __floatdidf
                0x0001eaf0                __aeabi_l2d
 .text          0x0001eb4c      0x424 c:/program files (x86)/codesourcery/sourcery g++ lite/bin/../lib/gcc/arm-none-eabi/4.4.1/thumb2\libgcc.a(_arm_muldivdf3.o)
                0x0001eb4c                __aeabi_dmul
                0x0001eb4c                __muldf3
                0x0001eda0                __divdf3
                0x0001eda0                __aeabi_ddiv
 .text          0x0001ef70      0x110 c:/program files (x86)/codesourcery/sourcery g++ lite/bin/../lib/gcc/arm-none-eabi/4.4.1/thumb2\libgcc.a(_arm_cmpdf2.o)
                0x0001ef70                __gtdf2
                0x0001ef70                __gedf2
                0x0001ef78                __ltdf2
                0x0001ef78                __ledf2
                0x0001ef80                __nedf2
                0x0001ef80                __eqdf2
                0x0001ef80                __cmpdf2
                0x0001effc                __aeabi_cdrcmple
                0x0001f00c                __aeabi_cdcmpeq
                0x0001f00c                __aeabi_cdcmple
                0x0001f01c                __aeabi_dcmpeq
                0x0001f030                __aeabi_dcmplt
                0x0001f044                __aeabi_dcmple
                0x0001f058                __aeabi_dcmpge
                0x0001f06c                __aeabi_dcmpgt
 .text          0x0001f080       0x50 c:/program files (x86)/codesourcery/sourcery g++ lite/bin/../lib/gcc/arm-none-eabi/4.4.1/thumb2\libgcc.a(_arm_fixdfsi.o)
                0x0001f080                __aeabi_d2iz
                0x0001f080                __fixdfsi
 .text          0x0001f0d0       0xa0 c:/program files (x86)/codesourcery/sourcery g++ lite/bin/../lib/gcc/arm-none-eabi/4.4.1/thumb2\libgcc.a(_arm_truncdfsf2.o)
                0x0001f0d0                __truncdfsf2
                0x0001f0d0                __aeabi_d2f
 .text          0x0001f170      0x21c c:/program files (x86)/codesourcery/sourcery g++ lite/bin/../lib/gcc/arm-none-eabi/4.4.1/thumb2\libgcc.a(_arm_addsubsf3.o)
                0x0001f170                __aeabi_frsub
                0x0001f178                __subsf3
                0x0001f178                __aeabi_fsub
                0x0001f17c                __aeabi_fadd
                0x0001f17c                __addsf3
                0x0001f2dc                __aeabi_ui2f
                0x0001f2dc                __floatunsisf
                0x0001f2e4                __aeabi_i2f
                0x0001f2e4                __floatsisf
                0x0001f300                __aeabi_ul2f
                0x0001f300                __floatundisf
                0x0001f310                __aeabi_l2f
                0x0001f310                __floatdisf
 .text          0x0001f38c      0x2a0 c:/program files (x86)/codesourcery/sourcery g++ lite/bin/../lib/gcc/arm-none-eabi/4.4.1/thumb2\libgcc.a(_arm_muldivsf3.o)
                0x0001f38c                __mulsf3
                0x0001f38c                __aeabi_fmul
                0x0001f4f4                __aeabi_fdiv
                0x0001f4f4                __divsf3
 .text          0x0001f62c       0xec c:/program files (x86)/codesourcery/sourcery g++ lite/bin/../lib/gcc/arm-none-eabi/4.4.1/thumb2\libgcc.a(_arm_cmpsf2.o)
                0x0001f62c                __gesf2
                0x0001f62c                __gtsf2
                0x0001f634                __lesf2
                0x0001f634                __ltsf2
                0x0001f63c                __nesf2
                0x0001f63c                __eqsf2
                0x0001f63c                __cmpsf2
                0x0001f69c                __aeabi_cfrcmple
                0x0001f6a4                __aeabi_cfcmpeq
                0x0001f6a4                __aeabi_cfcmple
                0x0001f6b4                __aeabi_fcmpeq
                0x0001f6c8                __aeabi_fcmplt
                0x0001f6dc                __aeabi_fcmple
                0x0001f6f0                __aeabi_fcmpge
                0x0001f704                __aeabi_fcmpgt
 .text          0x0001f718       0x4c c:/program files (x86)/codesourcery/sourcery g++ lite/bin/../lib/gcc/arm-none-eabi/4.4.1/thumb2\libgcc.a(_arm_fixsfsi.o)
                0x0001f718                __aeabi_f2iz
                0x0001f718                __fixsfsi
 .text          0x0001f764       0x2c c:/program files (x86)/codesourcery/sourcery g++ lite/bin/../lib/gcc/arm-none-eabi/4.4.1/thumb2\libgcc.a(_aeabi_uldivmod.o)
                0x0001f764                __aeabi_uldivmod
 .text          0x0001f790       0x58 c:/program files (x86)/codesourcery/sourcery g++ lite/bin/../lib/gcc/arm-none-eabi/4.4.1/thumb2\libgcc.a(bpabi.o)
                0x0001f790                __gnu_uldivmod_helper
                0x0001f7bc                __gnu_ldivmod_helper
 .text          0x0001f7e8      0x364 c:/program files (x86)/codesourcery/sourcery g++ lite/bin/../lib/gcc/arm-none-eabi/4.4.1/thumb2\libgcc.a(_divdi3.o)
                0x0001f7e8                __divdi3
 .text          0x0001fb4c      0x300 c:/program files (x86)/codesourcery/sourcery g++ lite/bin/../lib/gcc/arm-none-eabi/4.4.1/thumb2\libgcc.a(_udivdi3.o)
                0x0001fb4c                __udivdi3
 .text          0x0001fe4c       0x30 c:/program files (x86)/codesourcery/sourcery g++ lite/bin/../lib/gcc/arm-none-eabi/4.4.1/../../../../arm-none-eabi/lib/thumb2\libcs3.a(start_c.o)
                0x0001fe4c                __cs3_premain
 .text.cs3.init
                0x0001fe7c       0x5c c:/program files (x86)/codesourcery/sourcery g++ lite/bin/../lib/gcc/arm-none-eabi/4.4.1/../../../../arm-none-eabi/lib/thumb2\libcs3.a(start_c.o)
                0x0001fe7c                __cs3_start_c
 .text.cs3.init
                0x0001fed8       0x10 c:/program files (x86)/codesourcery/sourcery g++ lite/bin/../lib/gcc/arm-none-eabi/4.4.1/../../../../arm-none-eabi/lib/thumb2\libcs3unhosted.a(unhosted-start.o)
                0x0001fed8                _start
 .text          0x0001fee8       0x50 c:/program files (x86)/codesourcery/sourcery g++ lite/bin/../lib/gcc/arm-none-eabi/4.4.1/../../../../arm-none-eabi/lib/thumb2\libc.a(lib_a-init.o)
                0x0001fee8                __libc_init_array
 *(.plt)
 *(.gnu.warning)
 *(.glue_7t)
 .glue_7t       0x00000000        0x0 linker stubs
 *(.glue_7)
 .glue_7        0x00000000        0x0 linker stubs
 *(.vfp11_veneer)
 .vfp11_veneer  0x00000000        0x0 linker stubs
 *(.rodata .rodata.* .gnu.linkonce.r.*)
 .rodata        0x0001ff38        0x8 ..//common/src/debug_frmwrk.o
 .rodata        0x0001ff40       0x10 ..//drivers/UART/uart.o
 .rodata        0x0001ff50       0x58 ..//utils/printf/ee_printf-arg.o
 .rodata        0x0001ffa8        0xc ..//utils/input_output/input_output.o
 .rodata.abDescriptors
                0x0001ffb4       0x90 ..//utils/usbSerial/usbSerial.o
 .rodata        0x00020044       0x64 ..//PHY/main.o
 .rodata._ZZ4mainE4C.29
                0x000200a8       0x14 ..//PHY/main.o
 .rodata        0x000200bc       0x48 ..//PHY/config_data.o
 *fill*         0x00020104        0x4 00
 .rodata._ZTV13State_Machine
                0x00020108       0x30 ..//utils/state_machine/state_machine.o
                0x00020108                vtable for State_Machine
 .rodata._ZTV12SM_OPERATION
                0x00020138       0x30 ..//PHY/state_machines/SM_Operation.o
                0x00020138                vtable for SM_OPERATION
 .rodata        0x00020168        0x4 c:/program files (x86)/codesourcery/sourcery g++ lite/bin/../lib/gcc/arm-none-eabi/4.4.1/../../../../arm-none-eabi/lib/thumb2\libc.a(lib_a-impure.o)
                0x00020168                _global_impure_ptr
 .rodata.str1.4
                0x0002016c        0x2 c:/program files (x86)/codesourcery/sourcery g++ lite/bin/../lib/gcc/arm-none-eabi/4.4.1/../../../../arm-none-eabi/lib/thumb2\libc.a(lib_a-impure.o)
                                  0x4 (size before relaxing)
 *fill*         0x0002016e        0x2 00
 .rodata        0x00020170      0x128 c:/program files (x86)/codesourcery/sourcery g++ lite/bin/../lib/gcc/arm-none-eabi/4.4.1/../../../../arm-none-eabi/lib/thumb2\libc.a(lib_a-mprec.o)
                0x00020170                __mprec_tens
                0x00020248                __mprec_bigtens
                0x00020270                __mprec_tinytens
 .rodata.str1.4
                0x00020298        0x2 c:/program files (x86)/codesourcery/sourcery g++ lite/bin/../lib/gcc/arm-none-eabi/4.4.1/../../../../arm-none-eabi/lib/thumb2\libc.a(lib_a-puts.o)
                                  0x4 (size before relaxing)
 *fill*         0x0002029a        0x2 00
 .rodata.str1.4
                0x0002029c       0x14 c:/program files (x86)/codesourcery/sourcery g++ lite/bin/../lib/gcc/arm-none-eabi/4.4.1/../../../../arm-none-eabi/lib/thumb2\libc.a(lib_a-dtoa.o)
 .rodata        0x000202b0       0x60 c:/program files (x86)/codesourcery/sourcery g++ lite/bin/../lib/gcc/arm-none-eabi/4.4.1/../../../../arm-none-eabi/lib/thumb2\libc.a(lib_a-findfp.o)
                0x000202b0                __sf_fake_stdin
                0x000202d0                __sf_fake_stdout
                0x000202f0                __sf_fake_stderr
 *(.ARM.extab* .gnu.linkonce.armextab.*)
 *(.gcc_except_table)
 *(.eh_frame_hdr)
 *(.eh_frame)
                0x00020310                . = ALIGN (0x4)
 *(.init)
 .init          0x00020310        0x4 c:/program files (x86)/codesourcery/sourcery g++ lite/bin/../lib/gcc/arm-none-eabi/4.4.1/thumb2/crti.o
                0x00020310                _init
 .init          0x00020314        0x8 c:/program files (x86)/codesourcery/sourcery g++ lite/bin/../lib/gcc/arm-none-eabi/4.4.1/thumb2/crtn.o
                0x0002031c                . = ALIGN (0x4)
                0x0002031c                __preinit_array_start = .
 *(.preinit_array)
                0x0002031c                __preinit_array_end = .
                0x0002031c                . = ALIGN (0x4)
                0x0002031c                __init_array_start = .
 *(SORT(.init_array.*))
 *(.init_array)
 .init_array    0x0002031c        0x4 c:/program files (x86)/codesourcery/sourcery g++ lite/bin/../lib/gcc/arm-none-eabi/4.4.1/thumb2/crtbegin.o
 .init_array    0x00020320        0x4 ..//PHY/main.o
                0x00020324                __init_array_end = .
                0x00020324                . = ALIGN (0x4)
 *crtbegin.o(.ctors)
 *(EXCLUDE_FILE(*crtend.o) .ctors)
 *(SORT(.ctors.*))
 *crtend.o(.ctors)
                0x00020324                . = ALIGN (0x4)
 *(.fini)
 .fini          0x00020324        0x4 c:/program files (x86)/codesourcery/sourcery g++ lite/bin/../lib/gcc/arm-none-eabi/4.4.1/thumb2/crti.o
                0x00020324                _fini
 .fini          0x00020328        0x8 c:/program files (x86)/codesourcery/sourcery g++ lite/bin/../lib/gcc/arm-none-eabi/4.4.1/thumb2/crtn.o
                0x00020330                . = ALIGN (0x4)
                0x00020330                __fini_array_start = .
 *(.fini_array)
 .fini_array    0x00020330        0x4 c:/program files (x86)/codesourcery/sourcery g++ lite/bin/../lib/gcc/arm-none-eabi/4.4.1/thumb2/crtbegin.o
 *(SORT(.fini_array.*))
                0x00020334                __fini_array_end = .
 *crtbegin.o(.dtors)
 *(EXCLUDE_FILE(*crtend.o) .dtors)
 *(SORT(.dtors.*))
 *crtend.o(.dtors)
                0x00020334                . = ALIGN (0x4)
                0x00020334                __cs3_regions = .
                0x00020334        0x4 LONG 0x0
                0x00020338        0x4 LONG 0x20350 __cs3_region_init_ram
                0x0002033c        0x4 LONG 0x100000c8 __cs3_region_start_ram
                0x00020340        0x4 LONG 0x5c0 __cs3_region_init_size_ram
                0x00020344        0x4 LONG 0x1930 __cs3_region_zero_size_ram
                0x00020348                __exidx_start = .

.v4_bx          0x00020348        0x0
 .v4_bx         0x00000000        0x0 linker stubs

.ARM.exidx      0x00020348        0x8
 *(.ARM.exidx* .gnu.linkonce.armexidx.*)
 .ARM.exidx.cs3.reset
                0x00020348        0x8 ..//common/Core/CM3/startup_LPC17xx.o
 .ARM.exidx     0x00020350        0x0 c:/program files (x86)/codesourcery/sourcery g++ lite/bin/../lib/gcc/arm-none-eabi/4.4.1/thumb2\libgcc.a(_divdi3.o)
                                  0x8 (size before relaxing)
 .ARM.exidx     0x00020350        0x0 c:/program files (x86)/codesourcery/sourcery g++ lite/bin/../lib/gcc/arm-none-eabi/4.4.1/thumb2\libgcc.a(_udivdi3.o)
                                  0x8 (size before relaxing)
                0x00020350                __exidx_end = .

.text.align     0x00020350        0x0
                0x00020350                . = ALIGN (0x8)
                0x00020350                _etext = .
                0x00070000                __cs3_region_size_rom = 0x70000
                0x00000001                __cs3_region_num = 0x1

.data           0x100000c8      0x5c0 load address 0x00020350
                0x100000c8                __cs3_region_start_ram = .
 *(.cs3.region-head.ram)
 *(.jcr)
 .jcr           0x100000c8        0x0 c:/program files (x86)/codesourcery/sourcery g++ lite/bin/../lib/gcc/arm-none-eabi/4.4.1/thumb2/crtbegin.o
 .jcr           0x100000c8        0x4 c:/program files (x86)/codesourcery/sourcery g++ lite/bin/../lib/gcc/arm-none-eabi/4.4.1/thumb2/crtend.o
 *(.got.plt)
 *(.got)
 *(.shdata)
 *(.data .data.* .gnu.linkonce.d.*)
 .data          0x100000cc        0x4 c:/program files (x86)/codesourcery/sourcery g++ lite/bin/../lib/gcc/arm-none-eabi/4.4.1/thumb2/crtbegin.o
                0x100000cc                __dso_handle
 .data.SystemCoreClock
                0x100000d0        0x4 ..//common/Core/CM3/system_LPC17xx.o
                0x100000d0                SystemCoreClock
 .data.lower_digits
                0x100000d4        0x4 ..//utils/printf/ee_printf-arg.o
 .data.upper_digits
                0x100000d8        0x4 ..//utils/printf/ee_printf-arg.o
 .data.io_input_pins
                0x100000dc        0xc ..//utils/input_output/input_output.o
                0x100000dc                io_input_pins
 .data.io_output_pins
                0x100000e8       0x18 ..//utils/input_output/input_output.o
                0x100000e8                io_output_pins
 .data.PULSE_PORT_SET_NUM
                0x10000100       0x10 ..//utils/multi-steppers/multi-steppers.o
                0x10000100                PULSE_PORT_SET_NUM
 .data.PULSE_PORT_DIR_NUM
                0x10000110       0x10 ..//utils/multi-steppers/multi-steppers.o
                0x10000110                PULSE_PORT_DIR_NUM
 .data.PULSE_PIN_OFFSET_NUM
                0x10000120       0x10 ..//utils/multi-steppers/multi-steppers.o
                0x10000120                PULSE_PIN_OFFSET_NUM
 .data.DIR_PORT_SET_NUM
                0x10000130       0x10 ..//utils/multi-steppers/multi-steppers.o
                0x10000130                DIR_PORT_SET_NUM
 .data.DIR_PORT_CLEAR_NUM
                0x10000140       0x10 ..//utils/multi-steppers/multi-steppers.o
                0x10000140                DIR_PORT_CLEAR_NUM
 .data.DIR_PORT_DIR_NUM
                0x10000150       0x10 ..//utils/multi-steppers/multi-steppers.o
                0x10000150                DIR_PORT_DIR_NUM
 .data.DIR_PIN_OFFSET_NUM
                0x10000160       0x10 ..//utils/multi-steppers/multi-steppers.o
                0x10000160                DIR_PIN_OFFSET_NUM
 .data.LineCoding
                0x10000170        0x8 ..//utils/usbSerial/usbSerial.o
 .data.input_rise_debounce_time
                0x10000178        0x4 ..//PHY/main.o
                0x10000178                input_rise_debounce_time
 .data.input_fall_debounce_time
                0x1000017c        0x4 ..//PHY/main.o
                0x1000017c                input_fall_debounce_time
 .data          0x10000180       0xf4 c:/program files (x86)/codesourcery/sourcery g++ lite/bin/../lib/gcc/arm-none-eabi/4.4.1/../../../../arm-none-eabi/lib/thumb2\libc.a(lib_a-impure.o)
                0x10000180                _impure_ptr
 .data          0x10000274      0x410 c:/program files (x86)/codesourcery/sourcery g++ lite/bin/../lib/gcc/arm-none-eabi/4.4.1/../../../../arm-none-eabi/lib/thumb2\libc.a(lib_a-mallocr.o)
                0x10000274                __malloc_av_
                0x1000067c                __malloc_sbrk_base
                0x10000680                __malloc_trim_threshold
 *(.ram)
                0x10000688                . = ALIGN (0x8)
 *fill*         0x10000684        0x4 00
                0x10000688                _edata = .

.bss            0x10000688     0x1930 load address 0x00020910
 *(.shbss)
 *(.bss .bss.* .gnu.linkonce.b.*)
 .bss           0x10000688        0x1 c:/program files (x86)/codesourcery/sourcery g++ lite/bin/../lib/gcc/arm-none-eabi/4.4.1/thumb2/crtbegin.o
 *fill*         0x10000689        0x3 00
 .bss.heap_end  0x1000068c        0x4 ..//Common/src/syscalls.o
 .bss.uart_enable_accumulator
                0x10000690       0x10 ..//drivers/UART/uart.o
                0x10000690                uart_enable_accumulator
 .bss._pfnDevIntHandler
                0x100006a0        0x4 ..//drivers/USB/usbhw_lpc.o
 .bss._apfnEPIntHandlers
                0x100006a4       0x40 ..//drivers/USB/usbhw_lpc.o
 .bss._pfnFrameHandler
                0x100006e4        0x4 ..//drivers/USB/usbhw_lpc.o
 .bss.abStdReqData
                0x100006e8        0x8 ..//drivers/USB/usbinit.o
 .bss.Setup     0x100006f0        0x8 ..//drivers/USB/usbcontrol.o
 .bss.pbData    0x100006f8        0x4 ..//drivers/USB/usbcontrol.o
 .bss.iResidue  0x100006fc        0x4 ..//drivers/USB/usbcontrol.o
 .bss.iLen      0x10000700        0x4 ..//drivers/USB/usbcontrol.o
 .bss.apfnReqHandlers
                0x10000704       0x10 ..//drivers/USB/usbcontrol.o
 .bss.apbDataStore
                0x10000714       0x10 ..//drivers/USB/usbcontrol.o
 .bss.bConfiguration
                0x10000724        0x1 ..//drivers/USB/usbstdreq.o
 *fill*         0x10000725        0x3 00
 .bss.pfnHandleCustomReq
                0x10000728        0x4 ..//drivers/USB/usbstdreq.o
 .bss.pabDescrip
                0x1000072c        0x4 ..//drivers/USB/usbstdreq.o
 .bss.cclk_kHz  0x10000730        0x4 ..//drivers/IAP/iap_driver.o
 .bss.switch_prev_state
                0x10000734        0x4 ..//utils/input_output/input_output.o
 .bss.switch_state_count
                0x10000738       0x10 ..//utils/input_output/input_output.o
 .bss.i.4840    0x10000748        0x4 ..//utils/input_output/input_output.o
 .bss.input_value.4841
                0x1000074c        0x4 ..//utils/input_output/input_output.o
 .bss.PULSE_PORT_NUM
                0x10000750       0x10 ..//utils/multi-steppers/multi-steppers.o
                0x10000750                PULSE_PORT_NUM
 .bss.DIR_PORT_NUM
                0x10000760       0x10 ..//utils/multi-steppers/multi-steppers.o
                0x10000760                DIR_PORT_NUM
 .bss.I2CMasterState
                0x10000770        0x4 ..//utils/i2ceeprom/i2c.o
                0x10000770                I2CMasterState
 .bss.I2CRdIndex
                0x10000774        0x4 ..//utils/i2ceeprom/i2c.o
                0x10000774                I2CRdIndex
 .bss.I2CWrIndex
                0x10000778        0x4 ..//utils/i2ceeprom/i2c.o
                0x10000778                I2CWrIndex
 .bss.abBulkBuf
                0x1000077c       0x40 ..//utils/usbSerial/usbSerial.o
 .bss.abClassReqData
                0x100007bc        0x8 ..//utils/usbSerial/usbSerial.o
 .bss.txdata    0x100007c4      0x200 ..//utils/usbSerial/usbSerial.o
 .bss.rxdata    0x100009c4      0x200 ..//utils/usbSerial/usbSerial.o
 .bss.txfifo    0x10000bc4        0xc ..//utils/usbSerial/usbSerial.o
 .bss.rxfifo    0x10000bd0        0xc ..//utils/usbSerial/usbSerial.o
 .bss.delay_timer_32
                0x10000bdc        0x4 ..//PHY/main.o
                0x10000bdc                delay_timer_32
 .bss.modbus_retVal
                0x10000be0        0x4 ..//PHY/main.o
                0x10000be0                modbus_retVal
 .bss.holdingRegs
                0x10000be4      0x670 ..//PHY/main.o
                0x10000be4                holdingRegs
 .bss.holdingRegs_prev
                0x10001254      0x670 ..//PHY/main.o
                0x10001254                holdingRegs_prev
 .bss.baud_rate_select
                0x100018c4        0x4 ..//PHY/main.o
                0x100018c4                baud_rate_select
 .bss.baud_value
                0x100018c8        0x4 ..//PHY/main.o
                0x100018c8                baud_value
 .bss.flash_write_now
                0x100018cc        0x4 ..//PHY/main.o
                0x100018cc                flash_write_now
 .bss.fw_major_version
                0x100018d0        0x1 ..//PHY/main.o
                0x100018d0                fw_major_version
 .bss.fw_minor_version
                0x100018d1        0x1 ..//PHY/main.o
                0x100018d1                fw_minor_version
 *fill*         0x100018d2        0x2 00
 .bss.sm_operation
                0x100018d4       0x58 ..//PHY/main.o
                0x100018d4                sm_operation
 .bss.CamResArray
                0x1000192c        0x4 ..//PHY/main.o
                0x1000192c                CamResArray
 .bss.Cam1ResPTR
                0x10001930        0x4 ..//PHY/main.o
                0x10001930                Cam1ResPTR
 .bss.Cam2ResPTR
                0x10001934        0x4 ..//PHY/main.o
                0x10001934                Cam2ResPTR
 .bss.Cam3ResPTR
                0x10001938        0x4 ..//PHY/main.o
                0x10001938                Cam3ResPTR
 .bss.Cam4ResPTR
                0x1000193c        0x4 ..//PHY/main.o
                0x1000193c                Cam4ResPTR
 .bss.eepromStorage
                0x10001940        0xc ..//PHY/config_data.o
                0x10001940                eepromStorage
 .bss.delay_value
                0x1000194c       0xb8 ..//utils/delay_timer/delay_timer.o
                0x1000194c                delay_value
 .bss.delay_const
                0x10001a04       0xb8 ..//utils/delay_timer/delay_timer.o
                0x10001a04                delay_const
 .bss.accum_update_a
                0x10001abc        0x4 ..//utils/delay_timer/delay_timer.o
                0x10001abc                accum_update_a
 .bss.accum_update_b
                0x10001ac0        0x4 ..//utils/delay_timer/delay_timer.o
                0x10001ac0                accum_update_b
 .bss.reg_count
                0x10001ac4        0x4 ..//utils/modbus/SimpleModbusSlave_1769.o
                0x10001ac4                reg_count
 .bss           0x10001ac8       0x34 c:/program files (x86)/codesourcery/sourcery g++ lite/bin/../lib/gcc/arm-none-eabi/4.4.1/../../../../arm-none-eabi/lib/thumb2\libc.a(lib_a-mallocr.o)
                0x10001ac8                __malloc_top_pad
                0x10001acc                __malloc_current_mallinfo
                0x10001af4                __malloc_max_sbrked_mem
                0x10001af8                __malloc_max_total_mem
 *(COMMON)
 COMMON         0x10001afc       0x28 ..//common/src/debug_frmwrk.o
                0x10001afc                _db_dec
                0x10001b00                _db_dec_32
                0x10001b04                _db_hex_32
                0x10001b08                _db_dec_16
                0x10001b0c                _db_msg
                0x10001b10                _db_get_char
                0x10001b14                _db_msg_
                0x10001b18                _db_char
                0x10001b1c                _db_hex
                0x10001b20                _db_hex_16
 COMMON         0x10001b24       0x14 ..//drivers/timer/timer.o
                0x10001b24                TIM_ConfigStruct
                0x10001b2c                TIM_MatchConfigStruct
 COMMON         0x10001b38       0xfc ..//drivers/UART/uart.o
                0x10001b38                ring_tx2
                0x10001b44                UART2Status
                0x10001b48                UART3Status
                0x10001b4c                ring_tx3
                0x10001b58                ring_rx3
                0x10001b64                ring_rx0
                0x10001b70                modbus2
                0x10001c24                UART0Status
                0x10001c28                ring_rx2
 COMMON         0x10001c34       0x34 ..//utils/input_output/input_output.o
                0x10001c34                input_fall_flag
                0x10001c38                input_value
                0x10001c3c                input_state
                0x10001c40                switch_state_max_fall_count
                0x10001c50                input_name
                0x10001c54                input_rise_flag
                0x10001c58                switch_state_max_rise_count
 COMMON         0x10001c68      0x15c ..//utils/multi-steppers/multi-steppers.o
                0x10001c68                g_stepgen
                0x10001d38                freqscale
                0x10001d3c                Profiler
                0x10001dac                periodns
                0x10001db0                periodfp
                0x10001db4                dtns
                0x10001db8                accelscale
                0x10001dbc                dt
                0x10001dc0                recip_dt
 COMMON         0x10001dc4       0x2c ..//utils/i2ceeprom/i2c.o
                0x10001dc4                I2CReadLength
                0x10001dc8                I2CSlaveBuffer
                0x10001dd8                I2CMasterBuffer
                0x10001dec                I2CWriteLength
 COMMON         0x10001df0      0x1c0 ..//utils/usbSerial/usbSerial.o
                0x10001df0                buff_rxUSB
                0x10001ef0                ring_rxUSB
                0x10001efc                modbusUSB
 COMMON         0x10001fb0        0x4 c:/program files (x86)/codesourcery/sourcery g++ lite/bin/../lib/gcc/arm-none-eabi/4.4.1/../../../../arm-none-eabi/lib/thumb2\libc.a(lib_a-reent.o)
                0x10001fb0                errno
 *(.ram.b)
                0x10001fb8                . = ALIGN (0x8)
 *fill*         0x10001fb4        0x4 00
                0x10001fb8                _end = .
                0x10001fb8                __end = .

.heap           0x10001fb8     0x1000 load address 0x00020910
 *(.heap)
 .heap          0x10001fb8     0x1000 ..//common/Core/CM3/startup_LPC17xx.o
                0x10001fb8                __cs3_heap_start
                0x10002fb8                __cs3_heap_end

.stack          0x10007f00      0x100 load address 0x00020910
 *(.stack)
 .stack         0x10007f00      0x100 ..//common/Core/CM3/startup_LPC17xx.o
                0x10007f00                __cs3_stack_mem
                0x00020350                __cs3_region_init_ram = LOADADDR (.data)
                0x000005c0                __cs3_region_init_size_ram = (_edata - __cs3_region_start_ram)
                0x00001930                __cs3_region_zero_size_ram = (_end - _edata)
                0x00007f38                __cs3_region_size_ram = 0x7f38
                0x00000001                __cs3_region_num = 0x1

.stab
 *(.stab)

.stabstr
 *(.stabstr)

.debug
 *(.debug)

.line
 *(.line)

.debug_srcinfo
 *(.debug_srcinfo)

.debug_sfnames
 *(.debug_sfnames)

.comment        0x00000000      0x764
 .comment       0x00000000       0x2b ..//Common/src/syscalls.o
 .comment       0x0000002b       0x2b ..//common/Core/CM3/core_cm3.o
 .comment       0x00000056       0x2b ..//common/Core/CM3/system_LPC17xx.o
 .comment       0x00000081       0x2b ..//common/src/lpc17xx_gpio.o
 .comment       0x000000ac       0x2b ..//common/src/lpc17xx_pinsel.o
 .comment       0x000000d7       0x2b ..//common/src/lpc17xx_timer.o
 .comment       0x00000102       0x2b ..//common/src/debug_frmwrk.o
 .comment       0x0000012d       0x2b ..//common/src/lpc17xx_uart.o
 .comment       0x00000158       0x2b ..//common/src/lpc17xx_clkpwr.o
 .comment       0x00000183       0x2b ..//common/src/lpc17xx_nvic.o
 .comment       0x000001ae       0x2b ..//common/src/lpc17xx_qei.o
 .comment       0x000001d9       0x2b ..//common/src/lpc17xx_spi.o
 .comment       0x00000204       0x2b ..//common/src/lpc17xx_ssp.o
 .comment       0x0000022f       0x2b ..//common/src/lpc17xx_i2c.o
 .comment       0x0000025a       0x2b ..//common/src/lpc17xx_rtc.o
 .comment       0x00000285       0x2b ..//common/src/lpc17xx_emac.o
 .comment       0x000002b0       0x2b ..//common/src/delay.o
 .comment       0x000002db       0x2b ..//common/src/mini_cpp.o
 .comment       0x00000306       0x2b ..//drivers/timer/timer.o
 .comment       0x00000331       0x2b ..//drivers/UART/uart.o
 .comment       0x0000035c       0x2b ..//drivers/USB/intenable.o
 .comment       0x00000387       0x2b ..//drivers/USB/usbhw_lpc.o
 .comment       0x000003b2       0x2b ..//drivers/USB/serial_fifo.o
 .comment       0x000003dd       0x2b ..//drivers/USB/usbinit.o
 .comment       0x00000408       0x2b ..//drivers/USB/usbcontrol.o
 .comment       0x00000433       0x2b ..//drivers/USB/usbstdreq.o
 .comment       0x0000045e       0x2b ..//drivers/IAP/iap_driver.o
 .comment       0x00000489       0x2b ..//drivers/SPI/ssp_master.o
 .comment       0x000004b4       0x2b ..//utils/ring_buffer/ring.o
 .comment       0x000004df       0x2b ..//utils/ringbuf/RingBuf.o
 .comment       0x0000050a       0x2b ..//utils/printf/ee_printf-arg.o
 .comment       0x00000535       0x2b ..//utils/input_output/input_output.o
 .comment       0x00000560       0x2b ..//utils/multi-steppers/multi-steppers.o
 .comment       0x0000058b       0x2b ..//utils/i2ceeprom/i2c.o
 .comment       0x000005b6       0x2b ..//utils/i2ceeprom/i2c_eeprom.o
 .comment       0x000005e1       0x2b ..//utils/usbSerial/usbSerial.o
 .comment       0x0000060c       0x2b ..//utils/modbus/modbus.o
 .comment       0x00000637       0x2b ..//PHY/interrupts.o
 .comment       0x00000662       0x2b ..//PHY/main.o
 .comment       0x0000068d       0x2b ..//PHY/config_data.o
 .comment       0x000006b8       0x2b ..//utils/delay_timer/delay_timer.o
 .comment       0x000006e3       0x2b ..//utils/state_machine/state_machine.o
 .comment       0x0000070e       0x2b ..//utils/modbus/SimpleModbusSlave_1769.o
 .comment       0x00000739       0x2b ..//PHY/state_machines/SM_Operation.o

.debug_aranges  0x00000000     0x1538
 *(.debug_aranges)
 .debug_aranges
                0x00000000       0x78 ..//Common/src/syscalls.o
 .debug_aranges
                0x00000078       0xc8 ..//common/Core/CM3/core_cm3.o
 .debug_aranges
                0x00000140       0x28 ..//common/Core/CM3/system_LPC17xx.o
 .debug_aranges
                0x00000168       0xf8 ..//common/src/lpc17xx_gpio.o
 .debug_aranges
                0x00000260       0x48 ..//common/src/lpc17xx_pinsel.o
 .debug_aranges
                0x000002a8       0x98 ..//common/src/lpc17xx_timer.o
 .debug_aranges
                0x00000340       0x70 ..//common/src/debug_frmwrk.o
 .debug_aranges
                0x000003b0      0x100 ..//common/src/lpc17xx_uart.o
 .debug_aranges
                0x000004b0       0x60 ..//common/src/lpc17xx_clkpwr.o
 .debug_aranges
                0x00000510       0x30 ..//common/src/lpc17xx_nvic.o
 .debug_aranges
                0x00000540       0xc0 ..//common/src/lpc17xx_qei.o
 .debug_aranges
                0x00000600       0x58 ..//common/src/lpc17xx_spi.o
 .debug_aranges
                0x00000658       0xa8 ..//common/src/lpc17xx_ssp.o
 .debug_aranges
                0x00000700       0xd0 ..//common/src/lpc17xx_i2c.o
 .debug_aranges
                0x000007d0       0x48 ..//common/src/lpc17xx_rtc.o
 .debug_aranges
                0x00000818       0xe0 ..//common/src/lpc17xx_emac.o
 .debug_aranges
                0x000008f8       0x38 ..//common/src/delay.o
 .debug_aranges
                0x00000930       0x38 ..//common/src/mini_cpp.o
 .debug_aranges
                0x00000968       0xa0 ..//drivers/timer/timer.o
 .debug_aranges
                0x00000a08      0x110 ..//drivers/UART/uart.o
 .debug_aranges
                0x00000b18       0x28 ..//drivers/USB/intenable.o
 .debug_aranges
                0x00000b40       0xb8 ..//drivers/USB/usbhw_lpc.o
 .debug_aranges
                0x00000bf8       0x40 ..//drivers/USB/serial_fifo.o
 .debug_aranges
                0x00000c38       0x28 ..//drivers/USB/usbinit.o
 .debug_aranges
                0x00000c60       0x40 ..//drivers/USB/usbcontrol.o
 .debug_aranges
                0x00000ca0       0x58 ..//drivers/USB/usbstdreq.o
 .debug_aranges
                0x00000cf8       0x80 ..//drivers/IAP/iap_driver.o
 .debug_aranges
                0x00000d78       0x30 ..//drivers/SPI/ssp_master.o
 .debug_aranges
                0x00000da8       0x50 ..//utils/ring_buffer/ring.o
 .debug_aranges
                0x00000df8       0x58 ..//utils/ringbuf/RingBuf.o
 .debug_aranges
                0x00000e50       0x88 ..//utils/printf/ee_printf-arg.o
 .debug_aranges
                0x00000ed8       0x68 ..//utils/input_output/input_output.o
 .debug_aranges
                0x00000f40      0x128 ..//utils/multi-steppers/multi-steppers.o
 .debug_aranges
                0x00001068       0x48 ..//utils/i2ceeprom/i2c.o
 .debug_aranges
                0x000010b0       0x48 ..//utils/i2ceeprom/i2c_eeprom.o
 .debug_aranges
                0x000010f8       0xf0 ..//utils/usbSerial/usbSerial.o
 .debug_aranges
                0x000011e8       0x30 ..//utils/modbus/modbus.o
 .debug_aranges
                0x00001218       0x48 ..//PHY/interrupts.o
 .debug_aranges
                0x00001260       0x98 ..//PHY/main.o
 .debug_aranges
                0x000012f8       0x78 ..//PHY/config_data.o
 .debug_aranges
                0x00001370       0x98 ..//utils/delay_timer/delay_timer.o
 .debug_aranges
                0x00001408       0x90 ..//utils/state_machine/state_machine.o
 .debug_aranges
                0x00001498       0x50 ..//utils/modbus/SimpleModbusSlave_1769.o
 .debug_aranges
                0x000014e8       0x50 ..//PHY/state_machines/SM_Operation.o

.debug_pubnames
                0x00000000     0x303d
 *(.debug_pubnames)
 .debug_pubnames
                0x00000000       0xa1 ..//Common/src/syscalls.o
 .debug_pubnames
                0x000000a1      0x159 ..//common/Core/CM3/core_cm3.o
 .debug_pubnames
                0x000001fa       0x4f ..//common/Core/CM3/system_LPC17xx.o
 .debug_pubnames
                0x00000249      0x203 ..//common/src/lpc17xx_gpio.o
 .debug_pubnames
                0x0000044c       0x59 ..//common/src/lpc17xx_pinsel.o
 .debug_pubnames
                0x000004a5      0x12b ..//common/src/lpc17xx_timer.o
 .debug_pubnames
                0x000005d0      0x150 ..//common/src/debug_frmwrk.o
 .debug_pubnames
                0x00000720      0x287 ..//common/src/lpc17xx_uart.o
 .debug_pubnames
                0x000009a7       0xbb ..//common/src/lpc17xx_clkpwr.o
 .debug_pubnames
                0x00000a62       0x46 ..//common/src/lpc17xx_nvic.o
 .debug_pubnames
                0x00000aa8      0x1aa ..//common/src/lpc17xx_qei.o
 .debug_pubnames
                0x00000c52       0xa6 ..//common/src/lpc17xx_spi.o
 .debug_pubnames
                0x00000cf8      0x15c ..//common/src/lpc17xx_ssp.o
 .debug_pubnames
                0x00000e54      0x163 ..//common/src/lpc17xx_i2c.o
 .debug_pubnames
                0x00000fb7       0x9b ..//common/src/lpc17xx_rtc.o
 .debug_pubnames
                0x00001052      0x1e5 ..//common/src/lpc17xx_emac.o
 .debug_pubnames
                0x00001237       0x49 ..//common/src/delay.o
 .debug_pubnames
                0x00001280       0x5e ..//common/src/mini_cpp.o
 .debug_pubnames
                0x000012de      0x174 ..//drivers/timer/timer.o
 .debug_pubnames
                0x00001452      0x343 ..//drivers/UART/uart.o
 .debug_pubnames
                0x00001795       0x2c ..//drivers/USB/intenable.o
 .debug_pubnames
                0x000017c1      0x132 ..//drivers/USB/usbhw_lpc.o
 .debug_pubnames
                0x000018f3       0x57 ..//drivers/USB/serial_fifo.o
 .debug_pubnames
                0x0000194a       0x1e ..//drivers/USB/usbinit.o
 .debug_pubnames
                0x00001968       0x4d ..//drivers/USB/usbcontrol.o
 .debug_pubnames
                0x000019b5       0x7f ..//drivers/USB/usbstdreq.o
 .debug_pubnames
                0x00001a34       0xbe ..//drivers/IAP/iap_driver.o
 .debug_pubnames
                0x00001af2       0xa6 ..//drivers/SPI/ssp_master.o
 .debug_pubnames
                0x00001b98       0x84 ..//utils/ring_buffer/ring.o
 .debug_pubnames
                0x00001c1c       0x71 ..//utils/ringbuf/RingBuf.o
 .debug_pubnames
                0x00001c8d       0x3c ..//utils/printf/ee_printf-arg.o
 .debug_pubnames
                0x00001cc9      0x16d ..//utils/input_output/input_output.o
 .debug_pubnames
                0x00001e36      0x4e0 ..//utils/multi-steppers/multi-steppers.o
 .debug_pubnames
                0x00002316       0xe6 ..//utils/i2ceeprom/i2c.o
 .debug_pubnames
                0x000023fc       0x84 ..//utils/i2ceeprom/i2c_eeprom.o
 .debug_pubnames
                0x00002480      0x1a2 ..//utils/usbSerial/usbSerial.o
 .debug_pubnames
                0x00002622       0x50 ..//utils/modbus/modbus.o
 .debug_pubnames
                0x00002672       0x8b ..//PHY/interrupts.o
 .debug_pubnames
                0x000026fd      0x325 ..//PHY/main.o
 .debug_pubnames
                0x00002a22      0x196 ..//PHY/config_data.o
 .debug_pubnames
                0x00002bb8      0x12e ..//utils/delay_timer/delay_timer.o
 .debug_pubnames
                0x00002ce6      0x1d4 ..//utils/state_machine/state_machine.o
 .debug_pubnames
                0x00002eba       0x9d ..//utils/modbus/SimpleModbusSlave_1769.o
 .debug_pubnames
                0x00002f57       0xe6 ..//PHY/state_machines/SM_Operation.o

.debug_info     0x00000000    0x154ee
 *(.debug_info .gnu.linkonce.wi.*)
 .debug_info    0x00000000      0x4bc ..//Common/src/syscalls.o
 .debug_info    0x000004bc      0x548 ..//common/Core/CM3/core_cm3.o
 .debug_info    0x00000a04      0x330 ..//common/Core/CM3/system_LPC17xx.o
 .debug_info    0x00000d34      0xdff ..//common/src/lpc17xx_gpio.o
 .debug_info    0x00001b33      0x494 ..//common/src/lpc17xx_pinsel.o
 .debug_info    0x00001fc7      0x85c ..//common/src/lpc17xx_timer.o
 .debug_info    0x00002823      0xa0f ..//common/src/debug_frmwrk.o
 .debug_info    0x00003232     0x12aa ..//common/src/lpc17xx_uart.o
 .debug_info    0x000044dc      0x60f ..//common/src/lpc17xx_clkpwr.o
 .debug_info    0x00004aeb      0x3d4 ..//common/src/lpc17xx_nvic.o
 .debug_info    0x00004ebf      0x832 ..//common/src/lpc17xx_qei.o
 .debug_info    0x000056f1      0x6d6 ..//common/src/lpc17xx_spi.o
 .debug_info    0x00005dc7      0x776 ..//common/src/lpc17xx_ssp.o
 .debug_info    0x0000653d      0xd8a ..//common/src/lpc17xx_i2c.o
 .debug_info    0x000072c7      0x78f ..//common/src/lpc17xx_rtc.o
 .debug_info    0x00007a56      0xd94 ..//common/src/lpc17xx_emac.o
 .debug_info    0x000087ea      0x129 ..//common/src/delay.o
 .debug_info    0x00008913     0x10b5 ..//common/src/mini_cpp.o
 .debug_info    0x000099c8      0x9e3 ..//drivers/timer/timer.o
 .debug_info    0x0000a3ab     0x1627 ..//drivers/UART/uart.o
 .debug_info    0x0000b9d2      0x326 ..//drivers/USB/intenable.o
 .debug_info    0x0000bcf8      0xfb8 ..//drivers/USB/usbhw_lpc.o
 .debug_info    0x0000ccb0      0x206 ..//drivers/USB/serial_fifo.o
 .debug_info    0x0000ceb6      0x109 ..//drivers/USB/usbinit.o
 .debug_info    0x0000cfbf      0x341 ..//drivers/USB/usbcontrol.o
 .debug_info    0x0000d300      0x44d ..//drivers/USB/usbstdreq.o
 .debug_info    0x0000d74d      0x5ab ..//drivers/IAP/iap_driver.o
 .debug_info    0x0000dcf8      0x3a8 ..//drivers/SPI/ssp_master.o
 .debug_info    0x0000e0a0      0x25a ..//utils/ring_buffer/ring.o
 .debug_info    0x0000e2fa      0x2b6 ..//utils/ringbuf/RingBuf.o
 .debug_info    0x0000e5b0      0x9ba ..//utils/printf/ee_printf-arg.o
 .debug_info    0x0000ef6a      0x77d ..//utils/input_output/input_output.o
 .debug_info    0x0000f6e7     0x125b ..//utils/multi-steppers/multi-steppers.o
 .debug_info    0x00010942      0x761 ..//utils/i2ceeprom/i2c.o
 .debug_info    0x000110a3      0x2fb ..//utils/i2ceeprom/i2c_eeprom.o
 .debug_info    0x0001139e      0xcf4 ..//utils/usbSerial/usbSerial.o
 .debug_info    0x00012092      0x302 ..//utils/modbus/modbus.o
 .debug_info    0x00012394      0x41f ..//PHY/interrupts.o
 .debug_info    0x000127b3      0xe2d ..//PHY/main.o
 .debug_info    0x000135e0      0x87d ..//PHY/config_data.o
 .debug_info    0x00013e5d      0x596 ..//utils/delay_timer/delay_timer.o
 .debug_info    0x000143f3      0x52f ..//utils/state_machine/state_machine.o
 .debug_info    0x00014922      0x5ec ..//utils/modbus/SimpleModbusSlave_1769.o
 .debug_info    0x00014f0e      0x5e0 ..//PHY/state_machines/SM_Operation.o

.debug_abbrev   0x00000000     0x4238
 *(.debug_abbrev)
 .debug_abbrev  0x00000000      0x118 ..//Common/src/syscalls.o
 .debug_abbrev  0x00000118       0xd7 ..//common/Core/CM3/core_cm3.o
 .debug_abbrev  0x000001ef       0xc4 ..//common/Core/CM3/system_LPC17xx.o
 .debug_abbrev  0x000002b3      0x1b8 ..//common/src/lpc17xx_gpio.o
 .debug_abbrev  0x0000046b      0x126 ..//common/src/lpc17xx_pinsel.o
 .debug_abbrev  0x00000591      0x1bd ..//common/src/lpc17xx_timer.o
 .debug_abbrev  0x0000074e      0x1c0 ..//common/src/debug_frmwrk.o
 .debug_abbrev  0x0000090e      0x1d9 ..//common/src/lpc17xx_uart.o
 .debug_abbrev  0x00000ae7      0x17b ..//common/src/lpc17xx_clkpwr.o
 .debug_abbrev  0x00000c62       0xe9 ..//common/src/lpc17xx_nvic.o
 .debug_abbrev  0x00000d4b      0x1c3 ..//common/src/lpc17xx_qei.o
 .debug_abbrev  0x00000f0e      0x1b1 ..//common/src/lpc17xx_spi.o
 .debug_abbrev  0x000010bf      0x1a4 ..//common/src/lpc17xx_ssp.o
 .debug_abbrev  0x00001263      0x21d ..//common/src/lpc17xx_i2c.o
 .debug_abbrev  0x00001480      0x11a ..//common/src/lpc17xx_rtc.o
 .debug_abbrev  0x0000159a      0x204 ..//common/src/lpc17xx_emac.o
 .debug_abbrev  0x0000179e       0xa2 ..//common/src/delay.o
 .debug_abbrev  0x00001840      0x209 ..//common/src/mini_cpp.o
 .debug_abbrev  0x00001a49      0x1d5 ..//drivers/timer/timer.o
 .debug_abbrev  0x00001c1e      0x245 ..//drivers/UART/uart.o
 .debug_abbrev  0x00001e63       0xf1 ..//drivers/USB/intenable.o
 .debug_abbrev  0x00001f54      0x231 ..//drivers/USB/usbhw_lpc.o
 .debug_abbrev  0x00002185       0xf7 ..//drivers/USB/serial_fifo.o
 .debug_abbrev  0x0000227c       0xb4 ..//drivers/USB/usbinit.o
 .debug_abbrev  0x00002330      0x12d ..//drivers/USB/usbcontrol.o
 .debug_abbrev  0x0000245d      0x17c ..//drivers/USB/usbstdreq.o
 .debug_abbrev  0x000025d9      0x133 ..//drivers/IAP/iap_driver.o
 .debug_abbrev  0x0000270c      0x167 ..//drivers/SPI/ssp_master.o
 .debug_abbrev  0x00002873       0xcd ..//utils/ring_buffer/ring.o
 .debug_abbrev  0x00002940       0xe8 ..//utils/ringbuf/RingBuf.o
 .debug_abbrev  0x00002a28      0x231 ..//utils/printf/ee_printf-arg.o
 .debug_abbrev  0x00002c59      0x16e ..//utils/input_output/input_output.o
 .debug_abbrev  0x00002dc7      0x203 ..//utils/multi-steppers/multi-steppers.o
 .debug_abbrev  0x00002fca      0x190 ..//utils/i2ceeprom/i2c.o
 .debug_abbrev  0x0000315a      0x112 ..//utils/i2ceeprom/i2c_eeprom.o
 .debug_abbrev  0x0000326c      0x265 ..//utils/usbSerial/usbSerial.o
 .debug_abbrev  0x000034d1       0xe8 ..//utils/modbus/modbus.o
 .debug_abbrev  0x000035b9      0x116 ..//PHY/interrupts.o
 .debug_abbrev  0x000036cf      0x2d8 ..//PHY/main.o
 .debug_abbrev  0x000039a7      0x1c7 ..//PHY/config_data.o
 .debug_abbrev  0x00003b6e      0x170 ..//utils/delay_timer/delay_timer.o
 .debug_abbrev  0x00003cde      0x1a8 ..//utils/state_machine/state_machine.o
 .debug_abbrev  0x00003e86      0x1bd ..//utils/modbus/SimpleModbusSlave_1769.o
 .debug_abbrev  0x00004043      0x1f5 ..//PHY/state_machines/SM_Operation.o

.debug_line     0x00000000     0x6a1a
 *(.debug_line)
 .debug_line    0x00000000      0x25e ..//Common/src/syscalls.o
 .debug_line    0x0000025e      0x276 ..//common/Core/CM3/core_cm3.o
 .debug_line    0x000004d4      0x14a ..//common/Core/CM3/system_LPC17xx.o
 .debug_line    0x0000061e      0x3a2 ..//common/src/lpc17xx_gpio.o
 .debug_line    0x000009c0      0x1b4 ..//common/src/lpc17xx_pinsel.o
 .debug_line    0x00000b74      0x2c1 ..//common/src/lpc17xx_timer.o
 .debug_line    0x00000e35      0x25c ..//common/src/debug_frmwrk.o
 .debug_line    0x00001091      0x49a ..//common/src/lpc17xx_uart.o
 .debug_line    0x0000152b      0x1ff ..//common/src/lpc17xx_clkpwr.o
 .debug_line    0x0000172a      0x12d ..//common/src/lpc17xx_nvic.o
 .debug_line    0x00001857      0x2bd ..//common/src/lpc17xx_qei.o
 .debug_line    0x00001b14      0x1ff ..//common/src/lpc17xx_spi.o
 .debug_line    0x00001d13      0x304 ..//common/src/lpc17xx_ssp.o
 .debug_line    0x00002017      0x4d4 ..//common/src/lpc17xx_i2c.o
 .debug_line    0x000024eb      0x18e ..//common/src/lpc17xx_rtc.o
 .debug_line    0x00002679      0x3f8 ..//common/src/lpc17xx_emac.o
 .debug_line    0x00002a71      0x186 ..//common/src/delay.o
 .debug_line    0x00002bf7      0x2e7 ..//common/src/mini_cpp.o
 .debug_line    0x00002ede      0x318 ..//drivers/timer/timer.o
 .debug_line    0x000031f6      0x47e ..//drivers/UART/uart.o
 .debug_line    0x00003674      0x116 ..//drivers/USB/intenable.o
 .debug_line    0x0000378a      0x2fc ..//drivers/USB/usbhw_lpc.o
 .debug_line    0x00003a86       0xdc ..//drivers/USB/serial_fifo.o
 .debug_line    0x00003b62       0x8c ..//drivers/USB/usbinit.o
 .debug_line    0x00003bee      0x103 ..//drivers/USB/usbcontrol.o
 .debug_line    0x00003cf1      0x16d ..//drivers/USB/usbstdreq.o
 .debug_line    0x00003e5e      0x1f9 ..//drivers/IAP/iap_driver.o
 .debug_line    0x00004057      0x182 ..//drivers/SPI/ssp_master.o
 .debug_line    0x000041d9      0x181 ..//utils/ring_buffer/ring.o
 .debug_line    0x0000435a      0x180 ..//utils/ringbuf/RingBuf.o
 .debug_line    0x000044da      0x3cb ..//utils/printf/ee_printf-arg.o
 .debug_line    0x000048a5      0x1ca ..//utils/input_output/input_output.o
 .debug_line    0x00004a6f      0x47b ..//utils/multi-steppers/multi-steppers.o
 .debug_line    0x00004eea      0x1e1 ..//utils/i2ceeprom/i2c.o
 .debug_line    0x000050cb      0x1f2 ..//utils/i2ceeprom/i2c_eeprom.o
 .debug_line    0x000052bd      0x4e0 ..//utils/usbSerial/usbSerial.o
 .debug_line    0x0000579d      0x161 ..//utils/modbus/modbus.o
 .debug_line    0x000058fe      0x18e ..//PHY/interrupts.o
 .debug_line    0x00005a8c      0x3f7 ..//PHY/main.o
 .debug_line    0x00005e83      0x2b7 ..//PHY/config_data.o
 .debug_line    0x0000613a      0x259 ..//utils/delay_timer/delay_timer.o
 .debug_line    0x00006393      0x189 ..//utils/state_machine/state_machine.o
 .debug_line    0x0000651c      0x2aa ..//utils/modbus/SimpleModbusSlave_1769.o
 .debug_line    0x000067c6      0x254 ..//PHY/state_machines/SM_Operation.o

.debug_frame    0x00000000     0x5210
 *(.debug_frame)
 .debug_frame   0x00000000      0x168 ..//Common/src/syscalls.o
 .debug_frame   0x00000168      0x248 ..//common/Core/CM3/core_cm3.o
 .debug_frame   0x000003b0       0x48 ..//common/Core/CM3/system_LPC17xx.o
 .debug_frame   0x000003f8      0x378 ..//common/src/lpc17xx_gpio.o
 .debug_frame   0x00000770       0xbc ..//common/src/lpc17xx_pinsel.o
 .debug_frame   0x0000082c      0x1e8 ..//common/src/lpc17xx_timer.o
 .debug_frame   0x00000a14      0x170 ..//common/src/debug_frmwrk.o
 .debug_frame   0x00000b84      0x35c ..//common/src/lpc17xx_uart.o
 .debug_frame   0x00000ee0      0x110 ..//common/src/lpc17xx_clkpwr.o
 .debug_frame   0x00000ff0       0x64 ..//common/src/lpc17xx_nvic.o
 .debug_frame   0x00001054      0x26c ..//common/src/lpc17xx_qei.o
 .debug_frame   0x000012c0       0xf4 ..//common/src/lpc17xx_spi.o
 .debug_frame   0x000013b4      0x218 ..//common/src/lpc17xx_ssp.o
 .debug_frame   0x000015cc      0x2cc ..//common/src/lpc17xx_i2c.o
 .debug_frame   0x00001898       0xb8 ..//common/src/lpc17xx_rtc.o
 .debug_frame   0x00001950      0x2e4 ..//common/src/lpc17xx_emac.o
 .debug_frame   0x00001c34       0x8c ..//common/src/delay.o
 .debug_frame   0x00001cc0       0x8c ..//common/src/mini_cpp.o
 .debug_frame   0x00001d4c      0x218 ..//drivers/timer/timer.o
 .debug_frame   0x00001f64      0x3b0 ..//drivers/UART/uart.o
 .debug_frame   0x00002314       0x48 ..//drivers/USB/intenable.o
 .debug_frame   0x0000235c      0x27c ..//drivers/USB/usbhw_lpc.o
 .debug_frame   0x000025d8       0xa0 ..//drivers/USB/serial_fifo.o
 .debug_frame   0x00002678       0x48 ..//drivers/USB/usbinit.o
 .debug_frame   0x000026c0       0xac ..//drivers/USB/usbcontrol.o
 .debug_frame   0x0000276c      0x100 ..//drivers/USB/usbstdreq.o
 .debug_frame   0x0000286c      0x1ac ..//drivers/IAP/iap_driver.o
 .debug_frame   0x00002a18       0x6c ..//drivers/SPI/ssp_master.o
 .debug_frame   0x00002a84       0xdc ..//utils/ring_buffer/ring.o
 .debug_frame   0x00002b60      0x108 ..//utils/ringbuf/RingBuf.o
 .debug_frame   0x00002c68      0x1dc ..//utils/printf/ee_printf-arg.o
 .debug_frame   0x00002e44      0x158 ..//utils/input_output/input_output.o
 .debug_frame   0x00002f9c      0x45c ..//utils/multi-steppers/multi-steppers.o
 .debug_frame   0x000033f8       0xbc ..//utils/i2ceeprom/i2c.o
 .debug_frame   0x000034b4       0xd0 ..//utils/i2ceeprom/i2c_eeprom.o
 .debug_frame   0x00003584      0x354 ..//utils/usbSerial/usbSerial.o
 .debug_frame   0x000038d8       0x70 ..//utils/modbus/modbus.o
 .debug_frame   0x00003948       0xb8 ..//PHY/interrupts.o
 .debug_frame   0x00003a00      0x1e8 ..//PHY/main.o
 .debug_frame   0x00003be8      0x180 ..//PHY/config_data.o
 .debug_frame   0x00003d68      0x1fc ..//utils/delay_timer/delay_timer.o
 .debug_frame   0x00003f64      0x1bc ..//utils/state_machine/state_machine.o
 .debug_frame   0x00004120       0xec ..//utils/modbus/SimpleModbusSlave_1769.o
 .debug_frame   0x0000420c       0xf0 ..//PHY/state_machines/SM_Operation.o
 .debug_frame   0x000042fc       0x34 c:/program files (x86)/codesourcery/sourcery g++ lite/bin/../lib/gcc/arm-none-eabi/4.4.1/../../../../arm-none-eabi/lib/thumb2\libm.a(lib_a-s_ceil.o)
 .debug_frame   0x00004330       0x28 c:/program files (x86)/codesourcery/sourcery g++ lite/bin/../lib/gcc/arm-none-eabi/4.4.1/../../../../arm-none-eabi/lib/thumb2\libc.a(lib_a-abort.o)
 .debug_frame   0x00004358       0xd8 c:/program files (x86)/codesourcery/sourcery g++ lite/bin/../lib/gcc/arm-none-eabi/4.4.1/../../../../arm-none-eabi/lib/thumb2\libc.a(lib_a-ecvtbuf.o)
 .debug_frame   0x00004430       0x30 c:/program files (x86)/codesourcery/sourcery g++ lite/bin/../lib/gcc/arm-none-eabi/4.4.1/../../../../arm-none-eabi/lib/thumb2\libc.a(lib_a-malloc.o)
 .debug_frame   0x00004460       0x3c c:/program files (x86)/codesourcery/sourcery g++ lite/bin/../lib/gcc/arm-none-eabi/4.4.1/../../../../arm-none-eabi/lib/thumb2\libc.a(lib_a-mallocr.o)
 .debug_frame   0x0000449c       0x28 c:/program files (x86)/codesourcery/sourcery g++ lite/bin/../lib/gcc/arm-none-eabi/4.4.1/../../../../arm-none-eabi/lib/thumb2\libc.a(lib_a-memcmp.o)
 .debug_frame   0x000044c4       0x34 c:/program files (x86)/codesourcery/sourcery g++ lite/bin/../lib/gcc/arm-none-eabi/4.4.1/../../../../arm-none-eabi/lib/thumb2\libc.a(lib_a-memcpy.o)
 .debug_frame   0x000044f8       0x28 c:/program files (x86)/codesourcery/sourcery g++ lite/bin/../lib/gcc/arm-none-eabi/4.4.1/../../../../arm-none-eabi/lib/thumb2\libc.a(lib_a-memset.o)
 .debug_frame   0x00004520       0x30 c:/program files (x86)/codesourcery/sourcery g++ lite/bin/../lib/gcc/arm-none-eabi/4.4.1/../../../../arm-none-eabi/lib/thumb2\libc.a(lib_a-mlock.o)
 .debug_frame   0x00004550      0x240 c:/program files (x86)/codesourcery/sourcery g++ lite/bin/../lib/gcc/arm-none-eabi/4.4.1/../../../../arm-none-eabi/lib/thumb2\libc.a(lib_a-mprec.o)
 .debug_frame   0x00004790       0x40 c:/program files (x86)/codesourcery/sourcery g++ lite/bin/../lib/gcc/arm-none-eabi/4.4.1/../../../../arm-none-eabi/lib/thumb2\libc.a(lib_a-puts.o)
 .debug_frame   0x000047d0       0x3c c:/program files (x86)/codesourcery/sourcery g++ lite/bin/../lib/gcc/arm-none-eabi/4.4.1/../../../../arm-none-eabi/lib/thumb2\libc.a(lib_a-reallocr.o)
 .debug_frame   0x0000480c       0x64 c:/program files (x86)/codesourcery/sourcery g++ lite/bin/../lib/gcc/arm-none-eabi/4.4.1/../../../../arm-none-eabi/lib/thumb2\libc.a(lib_a-reent.o)
 .debug_frame   0x00004870       0x2c c:/program files (x86)/codesourcery/sourcery g++ lite/bin/../lib/gcc/arm-none-eabi/4.4.1/../../../../arm-none-eabi/lib/thumb2\libc.a(lib_a-sbrkr.o)
 .debug_frame   0x0000489c       0xc0 c:/program files (x86)/codesourcery/sourcery g++ lite/bin/../lib/gcc/arm-none-eabi/4.4.1/../../../../arm-none-eabi/lib/thumb2\libc.a(lib_a-signal.o)
 .debug_frame   0x0000495c       0x3c c:/program files (x86)/codesourcery/sourcery g++ lite/bin/../lib/gcc/arm-none-eabi/4.4.1/../../../../arm-none-eabi/lib/thumb2\libc.a(lib_a-signalr.o)
 .debug_frame   0x00004998       0x28 c:/program files (x86)/codesourcery/sourcery g++ lite/bin/../lib/gcc/arm-none-eabi/4.4.1/../../../../arm-none-eabi/lib/thumb2\libc.a(lib_a-strcat.o)
 .debug_frame   0x000049c0       0x20 c:/program files (x86)/codesourcery/sourcery g++ lite/bin/../lib/gcc/arm-none-eabi/4.4.1/../../../../arm-none-eabi/lib/thumb2\libc.a(lib_a-strcpy.o)
 .debug_frame   0x000049e0       0x20 c:/program files (x86)/codesourcery/sourcery g++ lite/bin/../lib/gcc/arm-none-eabi/4.4.1/../../../../arm-none-eabi/lib/thumb2\libc.a(lib_a-strlen.o)
 .debug_frame   0x00004a00       0x44 c:/program files (x86)/codesourcery/sourcery g++ lite/bin/../lib/gcc/arm-none-eabi/4.4.1/../../../../arm-none-eabi/lib/thumb2\libc.a(lib_a-vsprintf.o)
 .debug_frame   0x00004a44       0x2c c:/program files (x86)/codesourcery/sourcery g++ lite/bin/../lib/gcc/arm-none-eabi/4.4.1/../../../../arm-none-eabi/lib/thumb2\libc.a(lib_a-callocr.o)
 .debug_frame   0x00004a70       0x64 c:/program files (x86)/codesourcery/sourcery g++ lite/bin/../lib/gcc/arm-none-eabi/4.4.1/../../../../arm-none-eabi/lib/thumb2\libc.a(lib_a-dtoa.o)
 .debug_frame   0x00004ad4      0x11c c:/program files (x86)/codesourcery/sourcery g++ lite/bin/../lib/gcc/arm-none-eabi/4.4.1/../../../../arm-none-eabi/lib/thumb2\libc.a(lib_a-findfp.o)
 .debug_frame   0x00004bf0       0x50 c:/program files (x86)/codesourcery/sourcery g++ lite/bin/../lib/gcc/arm-none-eabi/4.4.1/../../../../arm-none-eabi/lib/thumb2\libc.a(lib_a-freer.o)
 .debug_frame   0x00004c40       0x3c c:/program files (x86)/codesourcery/sourcery g++ lite/bin/../lib/gcc/arm-none-eabi/4.4.1/../../../../arm-none-eabi/lib/thumb2\libc.a(lib_a-fvwrite.o)
 .debug_frame   0x00004c7c       0x54 c:/program files (x86)/codesourcery/sourcery g++ lite/bin/../lib/gcc/arm-none-eabi/4.4.1/../../../../arm-none-eabi/lib/thumb2\libc.a(lib_a-fwalk.o)
 .debug_frame   0x00004cd0       0x28 c:/program files (x86)/codesourcery/sourcery g++ lite/bin/../lib/gcc/arm-none-eabi/4.4.1/../../../../arm-none-eabi/lib/thumb2\libc.a(lib_a-memchr.o)
 .debug_frame   0x00004cf8       0x2c c:/program files (x86)/codesourcery/sourcery g++ lite/bin/../lib/gcc/arm-none-eabi/4.4.1/../../../../arm-none-eabi/lib/thumb2\libc.a(lib_a-memmove.o)
 .debug_frame   0x00004d24       0x70 c:/program files (x86)/codesourcery/sourcery g++ lite/bin/../lib/gcc/arm-none-eabi/4.4.1/../../../../arm-none-eabi/lib/thumb2\libc.a(lib_a-stdio.o)
 .debug_frame   0x00004d94       0x68 c:/program files (x86)/codesourcery/sourcery g++ lite/bin/../lib/gcc/arm-none-eabi/4.4.1/../../../../arm-none-eabi/lib/thumb2\libc.a(lib_a-svfprintf.o)
 .debug_frame   0x00004dfc       0x2c c:/program files (x86)/codesourcery/sourcery g++ lite/bin/../lib/gcc/arm-none-eabi/4.4.1/../../../../arm-none-eabi/lib/thumb2\libc.a(lib_a-writer.o)
 .debug_frame   0x00004e28       0x2c c:/program files (x86)/codesourcery/sourcery g++ lite/bin/../lib/gcc/arm-none-eabi/4.4.1/../../../../arm-none-eabi/lib/thumb2\libc.a(lib_a-wsetup.o)
 .debug_frame   0x00004e54       0x2c c:/program files (x86)/codesourcery/sourcery g++ lite/bin/../lib/gcc/arm-none-eabi/4.4.1/../../../../arm-none-eabi/lib/thumb2\libc.a(lib_a-closer.o)
 .debug_frame   0x00004e80       0x3c c:/program files (x86)/codesourcery/sourcery g++ lite/bin/../lib/gcc/arm-none-eabi/4.4.1/../../../../arm-none-eabi/lib/thumb2\libc.a(lib_a-fclose.o)
 .debug_frame   0x00004ebc       0x40 c:/program files (x86)/codesourcery/sourcery g++ lite/bin/../lib/gcc/arm-none-eabi/4.4.1/../../../../arm-none-eabi/lib/thumb2\libc.a(lib_a-fflush.o)
 .debug_frame   0x00004efc       0x6c c:/program files (x86)/codesourcery/sourcery g++ lite/bin/../lib/gcc/arm-none-eabi/4.4.1/../../../../arm-none-eabi/lib/thumb2\libc.a(lib_a-locale.o)
 .debug_frame   0x00004f68       0x2c c:/program files (x86)/codesourcery/sourcery g++ lite/bin/../lib/gcc/arm-none-eabi/4.4.1/../../../../arm-none-eabi/lib/thumb2\libc.a(lib_a-lseekr.o)
 .debug_frame   0x00004f94       0x34 c:/program files (x86)/codesourcery/sourcery g++ lite/bin/../lib/gcc/arm-none-eabi/4.4.1/../../../../arm-none-eabi/lib/thumb2\libc.a(lib_a-makebuf.o)
 .debug_frame   0x00004fc8       0x2c c:/program files (x86)/codesourcery/sourcery g++ lite/bin/../lib/gcc/arm-none-eabi/4.4.1/../../../../arm-none-eabi/lib/thumb2\libc.a(lib_a-readr.o)
 .debug_frame   0x00004ff4       0x20 c:/program files (x86)/codesourcery/sourcery g++ lite/bin/../lib/gcc/arm-none-eabi/4.4.1/../../../../arm-none-eabi/lib/thumb2\libc.a(lib_a-s_isinfd.o)
 .debug_frame   0x00005014       0x20 c:/program files (x86)/codesourcery/sourcery g++ lite/bin/../lib/gcc/arm-none-eabi/4.4.1/../../../../arm-none-eabi/lib/thumb2\libc.a(lib_a-s_isnand.o)
 .debug_frame   0x00005034       0x30 c:/program files (x86)/codesourcery/sourcery g++ lite/bin/../lib/gcc/arm-none-eabi/4.4.1/../../../../arm-none-eabi/lib/thumb2\libc.a(lib_a-strcmp.o)
 .debug_frame   0x00005064       0x2c c:/program files (x86)/codesourcery/sourcery g++ lite/bin/../lib/gcc/arm-none-eabi/4.4.1/../../../../arm-none-eabi/lib/thumb2\libc.a(lib_a-fstatr.o)
 .debug_frame   0x00005090       0x2c c:/program files (x86)/codesourcery/sourcery g++ lite/bin/../lib/gcc/arm-none-eabi/4.4.1/../../../../arm-none-eabi/lib/thumb2\libc.a(lib_a-isattyr.o)
 .debug_frame   0x000050bc       0x20 c:/program files (x86)/codesourcery/sourcery g++ lite/bin/../lib/gcc/arm-none-eabi/4.4.1/thumb2\libgcc.a(_udivsi3.o)
 .debug_frame   0x000050dc       0x50 c:/program files (x86)/codesourcery/sourcery g++ lite/bin/../lib/gcc/arm-none-eabi/4.4.1/thumb2\libgcc.a(bpabi.o)
 .debug_frame   0x0000512c       0x3c c:/program files (x86)/codesourcery/sourcery g++ lite/bin/../lib/gcc/arm-none-eabi/4.4.1/thumb2\libgcc.a(_divdi3.o)
 .debug_frame   0x00005168       0x3c c:/program files (x86)/codesourcery/sourcery g++ lite/bin/../lib/gcc/arm-none-eabi/4.4.1/thumb2\libgcc.a(_udivdi3.o)
 .debug_frame   0x000051a4       0x40 c:/program files (x86)/codesourcery/sourcery g++ lite/bin/../lib/gcc/arm-none-eabi/4.4.1/../../../../arm-none-eabi/lib/thumb2\libcs3.a(start_c.o)
 .debug_frame   0x000051e4       0x2c c:/program files (x86)/codesourcery/sourcery g++ lite/bin/../lib/gcc/arm-none-eabi/4.4.1/../../../../arm-none-eabi/lib/thumb2\libc.a(lib_a-init.o)

.debug_str      0x00000000     0x6799
 *(.debug_str)
 .debug_str     0x00000000      0x215 ..//Common/src/syscalls.o
                                0x291 (size before relaxing)
 .debug_str     0x00000215      0x160 ..//common/Core/CM3/core_cm3.o
                                0x25b (size before relaxing)
 .debug_str     0x00000375      0x178 ..//common/Core/CM3/system_LPC17xx.o
                                0x267 (size before relaxing)
 .debug_str     0x000004ed      0x437 ..//common/src/lpc17xx_gpio.o
                                0x550 (size before relaxing)
 .debug_str     0x00000924      0x240 ..//common/src/lpc17xx_pinsel.o
                                0x365 (size before relaxing)
 .debug_str     0x00000b64      0x412 ..//common/src/lpc17xx_timer.o
                                0x55a (size before relaxing)
 .debug_str     0x00000f76      0x26f ..//common/src/debug_frmwrk.o
                                0x412 (size before relaxing)
 .debug_str     0x000011e5      0x843 ..//common/src/lpc17xx_uart.o
                                0xb51 (size before relaxing)
 .debug_str     0x00001a28      0x113 ..//common/src/lpc17xx_clkpwr.o
                                0x36e (size before relaxing)
 .debug_str     0x00001b3b       0x6d ..//common/src/lpc17xx_nvic.o
                                0x1e7 (size before relaxing)
 .debug_str     0x00001ba8      0x358 ..//common/src/lpc17xx_qei.o
                                0x4af (size before relaxing)
 .debug_str     0x00001f00       0xff ..//common/src/lpc17xx_spi.o
                                0x38b (size before relaxing)
 .debug_str     0x00001fff      0x232 ..//common/src/lpc17xx_ssp.o
                                0x40e (size before relaxing)
 .debug_str     0x00002231      0x643 ..//common/src/lpc17xx_i2c.o
                                0x83b (size before relaxing)
 .debug_str     0x00002874      0x197 ..//common/src/lpc17xx_rtc.o
                                0x3fc (size before relaxing)
 .debug_str     0x00002a0b      0x45b ..//common/src/lpc17xx_emac.o
                                0x6aa (size before relaxing)
 .debug_str     0x00002e66       0x3e ..//common/src/delay.o
                                0x132 (size before relaxing)
 .debug_str     0x00002ea4      0x525 ..//common/src/mini_cpp.o
                                0x69a (size before relaxing)
 .debug_str     0x000033c9      0x16e ..//drivers/timer/timer.o
                                0x689 (size before relaxing)
 .debug_str     0x00003537      0x372 ..//drivers/UART/uart.o
                                0x98f (size before relaxing)
 .debug_str     0x000038a9       0x32 ..//drivers/USB/intenable.o
                                0x36f (size before relaxing)
 .debug_str     0x000038db      0x607 ..//drivers/USB/usbhw_lpc.o
                                0x948 (size before relaxing)
 .debug_str     0x00003ee2       0x56 ..//drivers/USB/serial_fifo.o
                                0x16a (size before relaxing)
 .debug_str     0x00003f38       0x49 ..//drivers/USB/usbinit.o
                                0x149 (size before relaxing)
 .debug_str     0x00003f81      0x115 ..//drivers/USB/usbcontrol.o
                                0x243 (size before relaxing)
 .debug_str     0x00004096      0x170 ..//drivers/USB/usbstdreq.o
                                0x2ea (size before relaxing)
 .debug_str     0x00004206      0x241 ..//drivers/IAP/iap_driver.o
                                0x34b (size before relaxing)
 .debug_str     0x00004447       0x87 ..//drivers/SPI/ssp_master.o
                                0x27b (size before relaxing)
 .debug_str     0x000044ce       0x78 ..//utils/ring_buffer/ring.o
                                0x191 (size before relaxing)
 .debug_str     0x00004546       0xe7 ..//utils/ringbuf/RingBuf.o
                                0x1de (size before relaxing)
 .debug_str     0x0000462d      0x116 ..//utils/printf/ee_printf-arg.o
                                0x2c8 (size before relaxing)
 .debug_str     0x00004743      0x1ba ..//utils/input_output/input_output.o
                                0x407 (size before relaxing)
 .debug_str     0x000048fd      0x655 ..//utils/multi-steppers/multi-steppers.o
                                0x937 (size before relaxing)
 .debug_str     0x00004f52       0xd8 ..//utils/i2ceeprom/i2c.o
                                0x489 (size before relaxing)
 .debug_str     0x0000502a       0x91 ..//utils/i2ceeprom/i2c_eeprom.o
                                0x1ea (size before relaxing)
 .debug_str     0x000050bb      0x1fb ..//utils/usbSerial/usbSerial.o
                                0x6e5 (size before relaxing)
 .debug_str     0x000052b6       0x54 ..//utils/modbus/modbus.o
                                0x24f (size before relaxing)
 .debug_str     0x0000530a       0x6a ..//PHY/interrupts.o
                                0x2d6 (size before relaxing)
 .debug_str     0x00005374      0x8e3 ..//PHY/main.o
                                0xcbf (size before relaxing)
 .debug_str     0x00005c57      0x403 ..//PHY/config_data.o
                                0x571 (size before relaxing)
 .debug_str     0x0000605a      0x282 ..//utils/delay_timer/delay_timer.o
                                0x3b8 (size before relaxing)
 .debug_str     0x000062dc      0x1ab ..//utils/state_machine/state_machine.o
                                0x2d0 (size before relaxing)
 .debug_str     0x00006487      0x1d3 ..//utils/modbus/SimpleModbusSlave_1769.o
                                0x47d (size before relaxing)
 .debug_str     0x0000665a      0x13f ..//PHY/state_machines/SM_Operation.o
                                0x53b (size before relaxing)

.debug_loc      0x00000000     0x716d
 *(.debug_loc)
 .debug_loc     0x00000000      0x270 ..//Common/src/syscalls.o
 .debug_loc     0x00000270      0x3de ..//common/Core/CM3/core_cm3.o
 .debug_loc     0x0000064e       0x56 ..//common/Core/CM3/system_LPC17xx.o
 .debug_loc     0x000006a4      0x604 ..//common/src/lpc17xx_gpio.o
 .debug_loc     0x00000ca8      0x14a ..//common/src/lpc17xx_pinsel.o
 .debug_loc     0x00000df2      0x370 ..//common/src/lpc17xx_timer.o
 .debug_loc     0x00001162      0x25d ..//common/src/debug_frmwrk.o
 .debug_loc     0x000013bf      0x63d ..//common/src/lpc17xx_uart.o
 .debug_loc     0x000019fc      0x1b3 ..//common/src/lpc17xx_clkpwr.o
 .debug_loc     0x00001baf       0xa5 ..//common/src/lpc17xx_nvic.o
 .debug_loc     0x00001c54      0x483 ..//common/src/lpc17xx_qei.o
 .debug_loc     0x000020d7      0x194 ..//common/src/lpc17xx_spi.o
 .debug_loc     0x0000226b      0x3de ..//common/src/lpc17xx_ssp.o
 .debug_loc     0x00002649      0x4f1 ..//common/src/lpc17xx_i2c.o
 .debug_loc     0x00002b3a      0x11a ..//common/src/lpc17xx_rtc.o
 .debug_loc     0x00002c54      0x547 ..//common/src/lpc17xx_emac.o
 .debug_loc     0x0000319b       0xd0 ..//common/src/delay.o
 .debug_loc     0x0000326b       0xdc ..//common/src/mini_cpp.o
 .debug_loc     0x00003347      0x377 ..//drivers/timer/timer.o
 .debug_loc     0x000036be      0x60d ..//drivers/UART/uart.o
 .debug_loc     0x00003ccb       0x62 ..//drivers/USB/intenable.o
 .debug_loc     0x00003d2d      0x440 ..//drivers/USB/usbhw_lpc.o
 .debug_loc     0x0000416d      0x113 ..//drivers/USB/serial_fifo.o
 .debug_loc     0x00004280       0x62 ..//drivers/USB/usbinit.o
 .debug_loc     0x000042e2      0x113 ..//drivers/USB/usbcontrol.o
 .debug_loc     0x000043f5      0x1b8 ..//drivers/USB/usbstdreq.o
 .debug_loc     0x000045ad      0x2c5 ..//drivers/IAP/iap_driver.o
 .debug_loc     0x00004872       0x99 ..//drivers/SPI/ssp_master.o
 .debug_loc     0x0000490b      0x181 ..//utils/ring_buffer/ring.o
 .debug_loc     0x00004a8c      0x1b8 ..//utils/ringbuf/RingBuf.o
 .debug_loc     0x00004c44      0x328 ..//utils/printf/ee_printf-arg.o
 .debug_loc     0x00004f6c      0x21a ..//utils/input_output/input_output.o
 .debug_loc     0x00005186      0x714 ..//utils/multi-steppers/multi-steppers.o
 .debug_loc     0x0000589a      0x132 ..//utils/i2ceeprom/i2c.o
 .debug_loc     0x000059cc      0x14a ..//utils/i2ceeprom/i2c_eeprom.o
 .debug_loc     0x00005b16      0x579 ..//utils/usbSerial/usbSerial.o
 .debug_loc     0x0000608f       0xa5 ..//utils/modbus/modbus.o
 .debug_loc     0x00006134      0x102 ..//PHY/interrupts.o
 .debug_loc     0x00006236      0x334 ..//PHY/main.o
 .debug_loc     0x0000656a      0x26c ..//PHY/config_data.o
 .debug_loc     0x000067d6      0x35a ..//utils/delay_timer/delay_timer.o
 .debug_loc     0x00006b30      0x339 ..//utils/state_machine/state_machine.o
 .debug_loc     0x00006e69      0x183 ..//utils/modbus/SimpleModbusSlave_1769.o
 .debug_loc     0x00006fec      0x181 ..//PHY/state_machines/SM_Operation.o

.debug_macinfo
 *(.debug_macinfo)

.debug_weaknames
 *(.debug_weaknames)

.debug_funcnames
 *(.debug_funcnames)

.debug_typenames
 *(.debug_typenames)

.debug_varnames
 *(.debug_varnames)

.note.gnu.arm.ident
 *(.note.gnu.arm.ident)

.ARM.attributes
                0x00000000       0x25
 *(.ARM.attributes)
 .ARM.attributes
                0x00000000       0x19 c:/program files (x86)/codesourcery/sourcery g++ lite/bin/../lib/gcc/arm-none-eabi/4.4.1/thumb2/crti.o
 .ARM.attributes
                0x00000019       0x29 c:/program files (x86)/codesourcery/sourcery g++ lite/bin/../lib/gcc/arm-none-eabi/4.4.1/thumb2/crtbegin.o
 .ARM.attributes
                0x00000042       0x21 ..//common/Core/CM3/startup_LPC17xx.o
 .ARM.attributes
                0x00000063       0x31 ..//Common/src/syscalls.o
 .ARM.attributes
                0x00000094       0x31 ..//common/Core/CM3/core_cm3.o
 .ARM.attributes
                0x000000c5       0x31 ..//common/Core/CM3/system_LPC17xx.o
 .ARM.attributes
                0x000000f6       0x31 ..//common/src/lpc17xx_gpio.o
 .ARM.attributes
                0x00000127       0x31 ..//common/src/lpc17xx_pinsel.o
 .ARM.attributes
                0x00000158       0x31 ..//common/src/lpc17xx_timer.o
 .ARM.attributes
                0x00000189       0x31 ..//common/src/debug_frmwrk.o
 .ARM.attributes
                0x000001ba       0x31 ..//common/src/lpc17xx_uart.o
 .ARM.attributes
                0x000001eb       0x31 ..//common/src/lpc17xx_clkpwr.o
 .ARM.attributes
                0x0000021c       0x31 ..//common/src/lpc17xx_nvic.o
 .ARM.attributes
                0x0000024d       0x31 ..//common/src/lpc17xx_qei.o
 .ARM.attributes
                0x0000027e       0x31 ..//common/src/lpc17xx_spi.o
 .ARM.attributes
                0x000002af       0x31 ..//common/src/lpc17xx_ssp.o
 .ARM.attributes
                0x000002e0       0x31 ..//common/src/lpc17xx_i2c.o
 .ARM.attributes
                0x00000311       0x31 ..//common/src/lpc17xx_rtc.o
 .ARM.attributes
                0x00000342       0x31 ..//common/src/lpc17xx_emac.o
 .ARM.attributes
                0x00000373       0x31 ..//common/src/delay.o
 .ARM.attributes
                0x000003a4       0x31 ..//common/src/mini_cpp.o
 .ARM.attributes
                0x000003d5       0x31 ..//drivers/timer/timer.o
 .ARM.attributes
                0x00000406       0x31 ..//drivers/UART/uart.o
 .ARM.attributes
                0x00000437       0x31 ..//drivers/USB/intenable.o
 .ARM.attributes
                0x00000468       0x31 ..//drivers/USB/usbhw_lpc.o
 .ARM.attributes
                0x00000499       0x31 ..//drivers/USB/serial_fifo.o
 .ARM.attributes
                0x000004ca       0x31 ..//drivers/USB/usbinit.o
 .ARM.attributes
                0x000004fb       0x31 ..//drivers/USB/usbcontrol.o
 .ARM.attributes
                0x0000052c       0x31 ..//drivers/USB/usbstdreq.o
 .ARM.attributes
                0x0000055d       0x31 ..//drivers/IAP/iap_driver.o
 .ARM.attributes
                0x0000058e       0x31 ..//drivers/SPI/ssp_master.o
 .ARM.attributes
                0x000005bf       0x31 ..//utils/ring_buffer/ring.o
 .ARM.attributes
                0x000005f0       0x31 ..//utils/ringbuf/RingBuf.o
 .ARM.attributes
                0x00000621       0x31 ..//utils/printf/ee_printf-arg.o
 .ARM.attributes
                0x00000652       0x31 ..//utils/input_output/input_output.o
 .ARM.attributes
                0x00000683       0x31 ..//utils/multi-steppers/multi-steppers.o
 .ARM.attributes
                0x000006b4       0x31 ..//utils/i2ceeprom/i2c.o
 .ARM.attributes
                0x000006e5       0x31 ..//utils/i2ceeprom/i2c_eeprom.o
 .ARM.attributes
                0x00000716       0x31 ..//utils/usbSerial/usbSerial.o
 .ARM.attributes
                0x00000747       0x31 ..//utils/modbus/modbus.o
 .ARM.attributes
                0x00000778       0x31 ..//PHY/interrupts.o
 .ARM.attributes
                0x000007a9       0x31 ..//PHY/main.o
 .ARM.attributes
                0x000007da       0x31 ..//PHY/config_data.o
 .ARM.attributes
                0x0000080b       0x31 ..//utils/delay_timer/delay_timer.o
 .ARM.attributes
                0x0000083c       0x31 ..//utils/state_machine/state_machine.o
 .ARM.attributes
                0x0000086d       0x31 ..//utils/modbus/SimpleModbusSlave_1769.o
 .ARM.attributes
                0x0000089e       0x31 ..//PHY/state_machines/SM_Operation.o
 .ARM.attributes
                0x000008cf       0x29 c:/program files (x86)/codesourcery/sourcery g++ lite/bin/../lib/gcc/arm-none-eabi/4.4.1/../../../../arm-none-eabi/lib/thumb2\libm.a(lib_a-s_ceil.o)
 .ARM.attributes
                0x000008f8       0x29 c:/program files (x86)/codesourcery/sourcery g++ lite/bin/../lib/gcc/arm-none-eabi/4.4.1/../../../../arm-none-eabi/lib/thumb2\libc.a(lib_a-abort.o)
 .ARM.attributes
                0x00000921       0x29 c:/program files (x86)/codesourcery/sourcery g++ lite/bin/../lib/gcc/arm-none-eabi/4.4.1/../../../../arm-none-eabi/lib/thumb2\libc.a(lib_a-ecvtbuf.o)
 .ARM.attributes
                0x0000094a       0x29 c:/program files (x86)/codesourcery/sourcery g++ lite/bin/../lib/gcc/arm-none-eabi/4.4.1/../../../../arm-none-eabi/lib/thumb2\libc.a(lib_a-impure.o)
 .ARM.attributes
                0x00000973       0x29 c:/program files (x86)/codesourcery/sourcery g++ lite/bin/../lib/gcc/arm-none-eabi/4.4.1/../../../../arm-none-eabi/lib/thumb2\libc.a(lib_a-malloc.o)
 .ARM.attributes
                0x0000099c       0x29 c:/program files (x86)/codesourcery/sourcery g++ lite/bin/../lib/gcc/arm-none-eabi/4.4.1/../../../../arm-none-eabi/lib/thumb2\libc.a(lib_a-mallocr.o)
 .ARM.attributes
                0x000009c5       0x29 c:/program files (x86)/codesourcery/sourcery g++ lite/bin/../lib/gcc/arm-none-eabi/4.4.1/../../../../arm-none-eabi/lib/thumb2\libc.a(lib_a-memcmp.o)
 .ARM.attributes
                0x000009ee       0x29 c:/program files (x86)/codesourcery/sourcery g++ lite/bin/../lib/gcc/arm-none-eabi/4.4.1/../../../../arm-none-eabi/lib/thumb2\libc.a(lib_a-memcpy.o)
 .ARM.attributes
                0x00000a17       0x29 c:/program files (x86)/codesourcery/sourcery g++ lite/bin/../lib/gcc/arm-none-eabi/4.4.1/../../../../arm-none-eabi/lib/thumb2\libc.a(lib_a-memset.o)
 .ARM.attributes
                0x00000a40       0x29 c:/program files (x86)/codesourcery/sourcery g++ lite/bin/../lib/gcc/arm-none-eabi/4.4.1/../../../../arm-none-eabi/lib/thumb2\libc.a(lib_a-mlock.o)
 .ARM.attributes
                0x00000a69       0x29 c:/program files (x86)/codesourcery/sourcery g++ lite/bin/../lib/gcc/arm-none-eabi/4.4.1/../../../../arm-none-eabi/lib/thumb2\libc.a(lib_a-mprec.o)
 .ARM.attributes
                0x00000a92       0x29 c:/program files (x86)/codesourcery/sourcery g++ lite/bin/../lib/gcc/arm-none-eabi/4.4.1/../../../../arm-none-eabi/lib/thumb2\libc.a(lib_a-puts.o)
 .ARM.attributes
                0x00000abb       0x29 c:/program files (x86)/codesourcery/sourcery g++ lite/bin/../lib/gcc/arm-none-eabi/4.4.1/../../../../arm-none-eabi/lib/thumb2\libc.a(lib_a-reallocr.o)
 .ARM.attributes
                0x00000ae4       0x29 c:/program files (x86)/codesourcery/sourcery g++ lite/bin/../lib/gcc/arm-none-eabi/4.4.1/../../../../arm-none-eabi/lib/thumb2\libc.a(lib_a-reent.o)
 .ARM.attributes
                0x00000b0d       0x29 c:/program files (x86)/codesourcery/sourcery g++ lite/bin/../lib/gcc/arm-none-eabi/4.4.1/../../../../arm-none-eabi/lib/thumb2\libc.a(lib_a-sbrkr.o)
 .ARM.attributes
                0x00000b36       0x29 c:/program files (x86)/codesourcery/sourcery g++ lite/bin/../lib/gcc/arm-none-eabi/4.4.1/../../../../arm-none-eabi/lib/thumb2\libc.a(lib_a-signal.o)
 .ARM.attributes
                0x00000b5f       0x29 c:/program files (x86)/codesourcery/sourcery g++ lite/bin/../lib/gcc/arm-none-eabi/4.4.1/../../../../arm-none-eabi/lib/thumb2\libc.a(lib_a-signalr.o)
 .ARM.attributes
                0x00000b88       0x29 c:/program files (x86)/codesourcery/sourcery g++ lite/bin/../lib/gcc/arm-none-eabi/4.4.1/../../../../arm-none-eabi/lib/thumb2\libc.a(lib_a-strcat.o)
 .ARM.attributes
                0x00000bb1       0x29 c:/program files (x86)/codesourcery/sourcery g++ lite/bin/../lib/gcc/arm-none-eabi/4.4.1/../../../../arm-none-eabi/lib/thumb2\libc.a(lib_a-strcpy.o)
 .ARM.attributes
                0x00000bda       0x29 c:/program files (x86)/codesourcery/sourcery g++ lite/bin/../lib/gcc/arm-none-eabi/4.4.1/../../../../arm-none-eabi/lib/thumb2\libc.a(lib_a-strlen.o)
 .ARM.attributes
                0x00000c03       0x29 c:/program files (x86)/codesourcery/sourcery g++ lite/bin/../lib/gcc/arm-none-eabi/4.4.1/../../../../arm-none-eabi/lib/thumb2\libc.a(lib_a-vsprintf.o)
 .ARM.attributes
                0x00000c2c       0x29 c:/program files (x86)/codesourcery/sourcery g++ lite/bin/../lib/gcc/arm-none-eabi/4.4.1/../../../../arm-none-eabi/lib/thumb2\libc.a(lib_a-callocr.o)
 .ARM.attributes
                0x00000c55       0x29 c:/program files (x86)/codesourcery/sourcery g++ lite/bin/../lib/gcc/arm-none-eabi/4.4.1/../../../../arm-none-eabi/lib/thumb2\libc.a(lib_a-dtoa.o)
 .ARM.attributes
                0x00000c7e       0x29 c:/program files (x86)/codesourcery/sourcery g++ lite/bin/../lib/gcc/arm-none-eabi/4.4.1/../../../../arm-none-eabi/lib/thumb2\libc.a(lib_a-findfp.o)
 .ARM.attributes
                0x00000ca7       0x29 c:/program files (x86)/codesourcery/sourcery g++ lite/bin/../lib/gcc/arm-none-eabi/4.4.1/../../../../arm-none-eabi/lib/thumb2\libc.a(lib_a-freer.o)
 .ARM.attributes
                0x00000cd0       0x29 c:/program files (x86)/codesourcery/sourcery g++ lite/bin/../lib/gcc/arm-none-eabi/4.4.1/../../../../arm-none-eabi/lib/thumb2\libc.a(lib_a-fvwrite.o)
 .ARM.attributes
                0x00000cf9       0x29 c:/program files (x86)/codesourcery/sourcery g++ lite/bin/../lib/gcc/arm-none-eabi/4.4.1/../../../../arm-none-eabi/lib/thumb2\libc.a(lib_a-fwalk.o)
 .ARM.attributes
                0x00000d22       0x29 c:/program files (x86)/codesourcery/sourcery g++ lite/bin/../lib/gcc/arm-none-eabi/4.4.1/../../../../arm-none-eabi/lib/thumb2\libc.a(lib_a-memchr.o)
 .ARM.attributes
                0x00000d4b       0x29 c:/program files (x86)/codesourcery/sourcery g++ lite/bin/../lib/gcc/arm-none-eabi/4.4.1/../../../../arm-none-eabi/lib/thumb2\libc.a(lib_a-memmove.o)
 .ARM.attributes
                0x00000d74       0x29 c:/program files (x86)/codesourcery/sourcery g++ lite/bin/../lib/gcc/arm-none-eabi/4.4.1/../../../../arm-none-eabi/lib/thumb2\libc.a(lib_a-stdio.o)
 .ARM.attributes
                0x00000d9d       0x29 c:/program files (x86)/codesourcery/sourcery g++ lite/bin/../lib/gcc/arm-none-eabi/4.4.1/../../../../arm-none-eabi/lib/thumb2\libc.a(lib_a-svfprintf.o)
 .ARM.attributes
                0x00000dc6       0x29 c:/program files (x86)/codesourcery/sourcery g++ lite/bin/../lib/gcc/arm-none-eabi/4.4.1/../../../../arm-none-eabi/lib/thumb2\libc.a(lib_a-writer.o)
 .ARM.attributes
                0x00000def       0x29 c:/program files (x86)/codesourcery/sourcery g++ lite/bin/../lib/gcc/arm-none-eabi/4.4.1/../../../../arm-none-eabi/lib/thumb2\libc.a(lib_a-wsetup.o)
 .ARM.attributes
                0x00000e18       0x29 c:/program files (x86)/codesourcery/sourcery g++ lite/bin/../lib/gcc/arm-none-eabi/4.4.1/../../../../arm-none-eabi/lib/thumb2\libc.a(lib_a-closer.o)
 .ARM.attributes
                0x00000e41       0x29 c:/program files (x86)/codesourcery/sourcery g++ lite/bin/../lib/gcc/arm-none-eabi/4.4.1/../../../../arm-none-eabi/lib/thumb2\libc.a(lib_a-fclose.o)
 .ARM.attributes
                0x00000e6a       0x29 c:/program files (x86)/codesourcery/sourcery g++ lite/bin/../lib/gcc/arm-none-eabi/4.4.1/../../../../arm-none-eabi/lib/thumb2\libc.a(lib_a-fflush.o)
 .ARM.attributes
                0x00000e93       0x29 c:/program files (x86)/codesourcery/sourcery g++ lite/bin/../lib/gcc/arm-none-eabi/4.4.1/../../../../arm-none-eabi/lib/thumb2\libc.a(lib_a-locale.o)
 .ARM.attributes
                0x00000ebc       0x29 c:/program files (x86)/codesourcery/sourcery g++ lite/bin/../lib/gcc/arm-none-eabi/4.4.1/../../../../arm-none-eabi/lib/thumb2\libc.a(lib_a-lseekr.o)
 .ARM.attributes
                0x00000ee5       0x29 c:/program files (x86)/codesourcery/sourcery g++ lite/bin/../lib/gcc/arm-none-eabi/4.4.1/../../../../arm-none-eabi/lib/thumb2\libc.a(lib_a-makebuf.o)
 .ARM.attributes
                0x00000f0e       0x29 c:/program files (x86)/codesourcery/sourcery g++ lite/bin/../lib/gcc/arm-none-eabi/4.4.1/../../../../arm-none-eabi/lib/thumb2\libc.a(lib_a-readr.o)
 .ARM.attributes
                0x00000f37       0x29 c:/program files (x86)/codesourcery/sourcery g++ lite/bin/../lib/gcc/arm-none-eabi/4.4.1/../../../../arm-none-eabi/lib/thumb2\libc.a(lib_a-s_isinfd.o)
 .ARM.attributes
                0x00000f60       0x29 c:/program files (x86)/codesourcery/sourcery g++ lite/bin/../lib/gcc/arm-none-eabi/4.4.1/../../../../arm-none-eabi/lib/thumb2\libc.a(lib_a-s_isnand.o)
 .ARM.attributes
                0x00000f89       0x29 c:/program files (x86)/codesourcery/sourcery g++ lite/bin/../lib/gcc/arm-none-eabi/4.4.1/../../../../arm-none-eabi/lib/thumb2\libc.a(lib_a-strcmp.o)
 .ARM.attributes
                0x00000fb2       0x29 c:/program files (x86)/codesourcery/sourcery g++ lite/bin/../lib/gcc/arm-none-eabi/4.4.1/../../../../arm-none-eabi/lib/thumb2\libc.a(lib_a-fstatr.o)
 .ARM.attributes
                0x00000fdb       0x29 c:/program files (x86)/codesourcery/sourcery g++ lite/bin/../lib/gcc/arm-none-eabi/4.4.1/../../../../arm-none-eabi/lib/thumb2\libc.a(lib_a-isattyr.o)
 .ARM.attributes
                0x00001004       0x1b c:/program files (x86)/codesourcery/sourcery g++ lite/bin/../lib/gcc/arm-none-eabi/4.4.1/thumb2\libgcc.a(_udivsi3.o)
 .ARM.attributes
                0x0000101f       0x1b c:/program files (x86)/codesourcery/sourcery g++ lite/bin/../lib/gcc/arm-none-eabi/4.4.1/thumb2\libgcc.a(_dvmd_tls.o)
 .ARM.attributes
                0x0000103a       0x1b c:/program files (x86)/codesourcery/sourcery g++ lite/bin/../lib/gcc/arm-none-eabi/4.4.1/thumb2\libgcc.a(_arm_addsubdf3.o)
 .ARM.attributes
                0x00001055       0x1b c:/program files (x86)/codesourcery/sourcery g++ lite/bin/../lib/gcc/arm-none-eabi/4.4.1/thumb2\libgcc.a(_arm_muldivdf3.o)
 .ARM.attributes
                0x00001070       0x1b c:/program files (x86)/codesourcery/sourcery g++ lite/bin/../lib/gcc/arm-none-eabi/4.4.1/thumb2\libgcc.a(_arm_cmpdf2.o)
 .ARM.attributes
                0x0000108b       0x1b c:/program files (x86)/codesourcery/sourcery g++ lite/bin/../lib/gcc/arm-none-eabi/4.4.1/thumb2\libgcc.a(_arm_fixdfsi.o)
 .ARM.attributes
                0x000010a6       0x1b c:/program files (x86)/codesourcery/sourcery g++ lite/bin/../lib/gcc/arm-none-eabi/4.4.1/thumb2\libgcc.a(_arm_truncdfsf2.o)
 .ARM.attributes
                0x000010c1       0x1b c:/program files (x86)/codesourcery/sourcery g++ lite/bin/../lib/gcc/arm-none-eabi/4.4.1/thumb2\libgcc.a(_arm_addsubsf3.o)
 .ARM.attributes
                0x000010dc       0x1b c:/program files (x86)/codesourcery/sourcery g++ lite/bin/../lib/gcc/arm-none-eabi/4.4.1/thumb2\libgcc.a(_arm_muldivsf3.o)
 .ARM.attributes
                0x000010f7       0x1b c:/program files (x86)/codesourcery/sourcery g++ lite/bin/../lib/gcc/arm-none-eabi/4.4.1/thumb2\libgcc.a(_arm_cmpsf2.o)
 .ARM.attributes
                0x00001112       0x1b c:/program files (x86)/codesourcery/sourcery g++ lite/bin/../lib/gcc/arm-none-eabi/4.4.1/thumb2\libgcc.a(_arm_fixsfsi.o)
 .ARM.attributes
                0x0000112d       0x1b c:/program files (x86)/codesourcery/sourcery g++ lite/bin/../lib/gcc/arm-none-eabi/4.4.1/thumb2\libgcc.a(_aeabi_uldivmod.o)
 .ARM.attributes
                0x00001148       0x29 c:/program files (x86)/codesourcery/sourcery g++ lite/bin/../lib/gcc/arm-none-eabi/4.4.1/thumb2\libgcc.a(bpabi.o)
 .ARM.attributes
                0x00001171       0x29 c:/program files (x86)/codesourcery/sourcery g++ lite/bin/../lib/gcc/arm-none-eabi/4.4.1/thumb2\libgcc.a(_divdi3.o)
 .ARM.attributes
                0x0000119a       0x29 c:/program files (x86)/codesourcery/sourcery g++ lite/bin/../lib/gcc/arm-none-eabi/4.4.1/thumb2\libgcc.a(_udivdi3.o)
 .ARM.attributes
                0x000011c3       0x29 c:/program files (x86)/codesourcery/sourcery g++ lite/bin/../lib/gcc/arm-none-eabi/4.4.1/thumb2/crtend.o
 .ARM.attributes
                0x000011ec       0x19 c:/program files (x86)/codesourcery/sourcery g++ lite/bin/../lib/gcc/arm-none-eabi/4.4.1/thumb2/crtn.o
 .ARM.attributes
                0x00001205       0x29 c:/program files (x86)/codesourcery/sourcery g++ lite/bin/../lib/gcc/arm-none-eabi/4.4.1/../../../../arm-none-eabi/lib/thumb2\libcs3.a(start_c.o)
 .ARM.attributes
                0x0000122e       0x19 c:/program files (x86)/codesourcery/sourcery g++ lite/bin/../lib/gcc/arm-none-eabi/4.4.1/../../../../arm-none-eabi/lib/thumb2\libcs3unhosted.a(unhosted-start.o)
 .ARM.attributes
                0x00001247       0x29 c:/program files (x86)/codesourcery/sourcery g++ lite/bin/../lib/gcc/arm-none-eabi/4.4.1/../../../../arm-none-eabi/lib/thumb2\libc.a(lib_a-init.o)

/DISCARD/
 *(.note.GNU-stack)
OUTPUT(main.elf elf32-littlearm)

.debug_ranges   0x00000000     0x1498
 .debug_ranges  0x00000000       0x70 ..//Common/src/syscalls.o
 .debug_ranges  0x00000070       0xc0 ..//common/Core/CM3/core_cm3.o
 .debug_ranges  0x00000130       0x20 ..//common/Core/CM3/system_LPC17xx.o
 .debug_ranges  0x00000150       0xf0 ..//common/src/lpc17xx_gpio.o
 .debug_ranges  0x00000240       0x40 ..//common/src/lpc17xx_pinsel.o
 .debug_ranges  0x00000280       0x90 ..//common/src/lpc17xx_timer.o
 .debug_ranges  0x00000310       0x68 ..//common/src/debug_frmwrk.o
 .debug_ranges  0x00000378       0xf8 ..//common/src/lpc17xx_uart.o
 .debug_ranges  0x00000470       0x58 ..//common/src/lpc17xx_clkpwr.o
 .debug_ranges  0x000004c8       0x28 ..//common/src/lpc17xx_nvic.o
 .debug_ranges  0x000004f0       0xb8 ..//common/src/lpc17xx_qei.o
 .debug_ranges  0x000005a8       0x50 ..//common/src/lpc17xx_spi.o
 .debug_ranges  0x000005f8       0xa0 ..//common/src/lpc17xx_ssp.o
 .debug_ranges  0x00000698       0xc8 ..//common/src/lpc17xx_i2c.o
 .debug_ranges  0x00000760       0x40 ..//common/src/lpc17xx_rtc.o
 .debug_ranges  0x000007a0       0xd8 ..//common/src/lpc17xx_emac.o
 .debug_ranges  0x00000878       0x30 ..//common/src/delay.o
 .debug_ranges  0x000008a8       0x30 ..//common/src/mini_cpp.o
 .debug_ranges  0x000008d8       0x98 ..//drivers/timer/timer.o
 .debug_ranges  0x00000970      0x108 ..//drivers/UART/uart.o
 .debug_ranges  0x00000a78       0x20 ..//drivers/USB/intenable.o
 .debug_ranges  0x00000a98       0xb0 ..//drivers/USB/usbhw_lpc.o
 .debug_ranges  0x00000b48       0x38 ..//drivers/USB/serial_fifo.o
 .debug_ranges  0x00000b80       0x20 ..//drivers/USB/usbinit.o
 .debug_ranges  0x00000ba0       0x38 ..//drivers/USB/usbcontrol.o
 .debug_ranges  0x00000bd8       0x50 ..//drivers/USB/usbstdreq.o
 .debug_ranges  0x00000c28       0x78 ..//drivers/IAP/iap_driver.o
 .debug_ranges  0x00000ca0       0x28 ..//drivers/SPI/ssp_master.o
 .debug_ranges  0x00000cc8       0x48 ..//utils/ring_buffer/ring.o
 .debug_ranges  0x00000d10       0x50 ..//utils/ringbuf/RingBuf.o
 .debug_ranges  0x00000d60       0x80 ..//utils/printf/ee_printf-arg.o
 .debug_ranges  0x00000de0       0x60 ..//utils/input_output/input_output.o
 .debug_ranges  0x00000e40      0x120 ..//utils/multi-steppers/multi-steppers.o
 .debug_ranges  0x00000f60       0x40 ..//utils/i2ceeprom/i2c.o
 .debug_ranges  0x00000fa0       0x40 ..//utils/i2ceeprom/i2c_eeprom.o
 .debug_ranges  0x00000fe0       0xe8 ..//utils/usbSerial/usbSerial.o
 .debug_ranges  0x000010c8       0x28 ..//utils/modbus/modbus.o
 .debug_ranges  0x000010f0       0x40 ..//PHY/interrupts.o
 .debug_ranges  0x00001130       0x90 ..//PHY/main.o
 .debug_ranges  0x000011c0       0x70 ..//PHY/config_data.o
 .debug_ranges  0x00001230       0x90 ..//utils/delay_timer/delay_timer.o
 .debug_ranges  0x000012c0       0x88 ..//utils/state_machine/state_machine.o
 .debug_ranges  0x00001348      0x108 ..//utils/modbus/SimpleModbusSlave_1769.o
 .debug_ranges  0x00001450       0x48 ..//PHY/state_machines/SM_Operation.o

Cross Reference Table

Symbol                                            File
ADC_IRQHandler                                    ..//common/Core/CM3/startup_LPC17xx.o
BOD_IRQHandler                                    ..//common/Core/CM3/startup_LPC17xx.o
BusFault_Handler                                  ..//common/Core/CM3/startup_LPC17xx.o
CAN_IRQHandler                                    ..//common/Core/CM3/startup_LPC17xx.o
CLKPWR_ConfigPPWR                                 ..//common/src/lpc17xx_clkpwr.o
                                                  ..//utils/i2ceeprom/i2c.o
                                                  ..//common/src/lpc17xx_emac.o
                                                  ..//common/src/lpc17xx_i2c.o
                                                  ..//common/src/lpc17xx_ssp.o
                                                  ..//common/src/lpc17xx_qei.o
                                                  ..//common/src/lpc17xx_uart.o
                                                  ..//common/src/lpc17xx_timer.o
CLKPWR_DeepPowerDown                              ..//common/src/lpc17xx_clkpwr.o
CLKPWR_DeepSleep                                  ..//common/src/lpc17xx_clkpwr.o
CLKPWR_GetPCLK                                    ..//common/src/lpc17xx_clkpwr.o
                                                  ..//common/src/lpc17xx_i2c.o
                                                  ..//common/src/lpc17xx_ssp.o
                                                  ..//common/src/lpc17xx_qei.o
                                                  ..//common/src/lpc17xx_uart.o
                                                  ..//common/src/lpc17xx_timer.o
CLKPWR_GetPCLKSEL                                 ..//common/src/lpc17xx_clkpwr.o
CLKPWR_PowerDown                                  ..//common/src/lpc17xx_clkpwr.o
CLKPWR_SetPCLKDiv                                 ..//common/src/lpc17xx_clkpwr.o
                                                  ..//common/src/lpc17xx_i2c.o
                                                  ..//common/src/lpc17xx_spi.o
                                                  ..//common/src/lpc17xx_qei.o
                                                  ..//common/src/lpc17xx_timer.o
CLKPWR_Sleep                                      ..//common/src/lpc17xx_clkpwr.o
CPTR                                              ..//PHY/main.o
Cam1ResPTR                                        ..//PHY/main.o
Cam2ResPTR                                        ..//PHY/main.o
Cam3ResPTR                                        ..//PHY/main.o
Cam4ResPTR                                        ..//PHY/main.o
CamResArray                                       ..//PHY/main.o
Check_RX_Data(unsigned short*)                    ..//PHY/main.o
DIR_PIN_OFFSET_NUM                                ..//utils/multi-steppers/multi-steppers.o
DIR_PORT_CLEAR_NUM                                ..//utils/multi-steppers/multi-steppers.o
DIR_PORT_DIR_NUM                                  ..//utils/multi-steppers/multi-steppers.o
DIR_PORT_NUM                                      ..//utils/multi-steppers/multi-steppers.o
DIR_PORT_SET_NUM                                  ..//utils/multi-steppers/multi-steppers.o
DMA_IRQHandler                                    ..//common/Core/CM3/startup_LPC17xx.o
DebugMon_Handler                                  ..//common/Core/CM3/startup_LPC17xx.o
Default_Handler                                   ..//common/Core/CM3/startup_LPC17xx.o
EINT0_IRQHandler                                  ..//common/Core/CM3/startup_LPC17xx.o
EINT1_IRQHandler                                  ..//common/Core/CM3/startup_LPC17xx.o
EINT2_IRQHandler                                  ..//common/Core/CM3/startup_LPC17xx.o
EINT3_IRQHandler                                  ..//common/Core/CM3/startup_LPC17xx.o
EMAC_CheckPHYStatus                               ..//common/src/lpc17xx_emac.o
EMAC_CheckReceiveDataStatus                       ..//common/src/lpc17xx_emac.o
EMAC_CheckReceiveIndex                            ..//common/src/lpc17xx_emac.o
EMAC_CheckTransmitIndex                           ..//common/src/lpc17xx_emac.o
EMAC_DeInit                                       ..//common/src/lpc17xx_emac.o
EMAC_GetReceiveDataSize                           ..//common/src/lpc17xx_emac.o
EMAC_GetWoLStatus                                 ..//common/src/lpc17xx_emac.o
EMAC_Init                                         ..//common/src/lpc17xx_emac.o
EMAC_Init_New                                     ..//common/src/lpc17xx_emac.o
EMAC_IntCmd                                       ..//common/src/lpc17xx_emac.o
EMAC_IntGetStatus                                 ..//common/src/lpc17xx_emac.o
EMAC_ReadPacketBuffer                             ..//common/src/lpc17xx_emac.o
EMAC_SetFilterMode                                ..//common/src/lpc17xx_emac.o
EMAC_SetHashFilter                                ..//common/src/lpc17xx_emac.o
EMAC_SetPHYMode                                   ..//common/src/lpc17xx_emac.o
EMAC_UpdatePHYStatus                              ..//common/src/lpc17xx_emac.o
EMAC_UpdateRxConsumeIndex                         ..//common/src/lpc17xx_emac.o
EMAC_UpdateTxProduceIndex                         ..//common/src/lpc17xx_emac.o
EMAC_WritePacketBuffer                            ..//common/src/lpc17xx_emac.o
EMAC_clkdiv                                       ..//common/src/lpc17xx_emac.o
ENET_IRQHandler                                   ..//common/Core/CM3/startup_LPC17xx.o
FIO_ByteClearValue                                ..//common/src/lpc17xx_gpio.o
FIO_ByteReadValue                                 ..//common/src/lpc17xx_gpio.o
FIO_ByteSetDir                                    ..//common/src/lpc17xx_gpio.o
FIO_ByteSetMask                                   ..//common/src/lpc17xx_gpio.o
FIO_ByteSetValue                                  ..//common/src/lpc17xx_gpio.o
FIO_ClearInt                                      ..//common/src/lpc17xx_gpio.o
FIO_ClearValue                                    ..//common/src/lpc17xx_gpio.o
FIO_GetIntStatus                                  ..//common/src/lpc17xx_gpio.o
FIO_HalfWordClearValue                            ..//common/src/lpc17xx_gpio.o
FIO_HalfWordReadValue                             ..//common/src/lpc17xx_gpio.o
FIO_HalfWordSetDir                                ..//common/src/lpc17xx_gpio.o
FIO_HalfWordSetMask                               ..//common/src/lpc17xx_gpio.o
FIO_HalfWordSetValue                              ..//common/src/lpc17xx_gpio.o
FIO_IntCmd                                        ..//common/src/lpc17xx_gpio.o
FIO_ReadValue                                     ..//common/src/lpc17xx_gpio.o
FIO_SetDir                                        ..//common/src/lpc17xx_gpio.o
FIO_SetMask                                       ..//common/src/lpc17xx_gpio.o
FIO_SetValue                                      ..//common/src/lpc17xx_gpio.o
GPIO_Clear                                        ..//utils/input_output/input_output.o
GPIO_ClearInt                                     ..//common/src/lpc17xx_gpio.o
GPIO_ClearValue                                   ..//common/src/lpc17xx_gpio.o
                                                  ..//utils/input_output/input_output.o
                                                  ..//drivers/SPI/ssp_master.o
GPIO_Configure                                    ..//utils/input_output/input_output.o
GPIO_GetIntStatus                                 ..//common/src/lpc17xx_gpio.o
GPIO_IntCmd                                       ..//common/src/lpc17xx_gpio.o
GPIO_Read                                         ..//utils/input_output/input_output.o
GPIO_ReadValue                                    ..//common/src/lpc17xx_gpio.o
                                                  ..//utils/input_output/input_output.o
GPIO_Set                                          ..//utils/input_output/input_output.o
GPIO_SetDir                                       ..//common/src/lpc17xx_gpio.o
                                                  ..//utils/input_output/input_output.o
                                                  ..//drivers/SPI/ssp_master.o
                                                  ..//common/src/lpc17xx_spi.o
GPIO_SetValue                                     ..//common/src/lpc17xx_gpio.o
                                                  ..//utils/input_output/input_output.o
                                                  ..//drivers/SPI/ssp_master.o
HardFault_Handler                                 ..//common/Core/CM3/startup_LPC17xx.o
I2C0_IRQHandler                                   ..//utils/i2ceeprom/i2c.o
                                                  ..//common/Core/CM3/startup_LPC17xx.o
I2C1_IRQHandler                                   ..//common/Core/CM3/startup_LPC17xx.o
I2C2_IRQHandler                                   ..//common/Core/CM3/startup_LPC17xx.o
I2CDeinit                                         ..//utils/i2ceeprom/i2c.o
                                                  ..//PHY/config_data.o
I2CEngine                                         ..//utils/i2ceeprom/i2c.o
                                                  ..//utils/i2ceeprom/i2c_eeprom.o
I2CInit                                           ..//utils/i2ceeprom/i2c.o
                                                  ..//utils/i2ceeprom/i2c_eeprom.o
I2CMasterBuffer                                   ..//utils/i2ceeprom/i2c_eeprom.o
                                                  ..//utils/i2ceeprom/i2c.o
I2CMasterState                                    ..//utils/i2ceeprom/i2c.o
I2CRdIndex                                        ..//utils/i2ceeprom/i2c.o
I2CReadLength                                     ..//utils/i2ceeprom/i2c_eeprom.o
                                                  ..//utils/i2ceeprom/i2c.o
I2CSlaveBuffer                                    ..//utils/i2ceeprom/i2c_eeprom.o
                                                  ..//utils/i2ceeprom/i2c.o
I2CSlaveState                                     ..//utils/i2ceeprom/i2c.o
I2CWrIndex                                        ..//utils/i2ceeprom/i2c.o
I2CWriteLength                                    ..//utils/i2ceeprom/i2c_eeprom.o
                                                  ..//utils/i2ceeprom/i2c.o
I2C_Cmd                                           ..//common/src/lpc17xx_i2c.o
                                                  ..//utils/i2ceeprom/i2c.o
I2C_DeInit                                        ..//common/src/lpc17xx_i2c.o
                                                  ..//utils/i2ceeprom/i2c.o
I2C_Init                                          ..//common/src/lpc17xx_i2c.o
I2C_IntCmd                                        ..//common/src/lpc17xx_i2c.o
                                                  ..//utils/i2ceeprom/i2c.o
I2C_MasterHandler                                 ..//common/src/lpc17xx_i2c.o
I2C_MasterTransferComplete                        ..//common/src/lpc17xx_i2c.o
I2C_MasterTransferData                            ..//common/src/lpc17xx_i2c.o
I2C_MonitorGetDatabuffer                          ..//common/src/lpc17xx_i2c.o
I2C_MonitorHandler                                ..//common/src/lpc17xx_i2c.o
I2C_MonitorModeCmd                                ..//common/src/lpc17xx_i2c.o
I2C_MonitorModeConfig                             ..//common/src/lpc17xx_i2c.o
I2C_SetOwnSlaveAddr                               ..//common/src/lpc17xx_i2c.o
I2C_SlaveHandler                                  ..//common/src/lpc17xx_i2c.o
I2C_SlaveTransferComplete                         ..//common/src/lpc17xx_i2c.o
I2C_SlaveTransferData                             ..//common/src/lpc17xx_i2c.o
I2S_IRQHandler                                    ..//common/Core/CM3/startup_LPC17xx.o
LPC17xx_RTC_CTCReset                              ..//common/src/lpc17xx_rtc.o
LPC17xx_RTC_GetTime                               ..//common/src/lpc17xx_rtc.o
LPC17xx_RTC_Init                                  ..//common/src/lpc17xx_rtc.o
LPC17xx_RTC_SetTime                               ..//common/src/lpc17xx_rtc.o
LPC17xx_RTC_Start                                 ..//common/src/lpc17xx_rtc.o
LPC17xx_RTC_Stop                                  ..//common/src/lpc17xx_rtc.o
MCPWM_IRQHandler                                  ..//common/Core/CM3/startup_LPC17xx.o
Make_Pulses                                       ..//utils/multi-steppers/multi-steppers.o
                                                  ..//PHY/interrupts.o
MemManage_Handler                                 ..//common/Core/CM3/startup_LPC17xx.o
Move_Motor                                        ..//utils/multi-steppers/multi-steppers.o
                                                  ..//PHY/interrupts.o
NMI_Handler                                       ..//common/Core/CM3/startup_LPC17xx.o
NVIC_DeInit                                       ..//common/src/lpc17xx_nvic.o
NVIC_SCBDeInit                                    ..//common/src/lpc17xx_nvic.o
NVIC_SetVTOR                                      ..//common/src/lpc17xx_nvic.o
PINSEL_ConfigPin                                  ..//common/src/lpc17xx_pinsel.o
                                                  ..//drivers/SPI/ssp_master.o
                                                  ..//common/src/lpc17xx_spi.o
                                                  ..//common/src/debug_frmwrk.o
PINSEL_ConfigTraceFunc                            ..//common/src/lpc17xx_pinsel.o
PINSEL_SetI2C0Pins                                ..//common/src/lpc17xx_pinsel.o
PLL0_IRQHandler                                   ..//common/Core/CM3/startup_LPC17xx.o
PLL1_IRQHandler                                   ..//common/Core/CM3/startup_LPC17xx.o
PULSE_PIN_OFFSET_NUM                              ..//utils/multi-steppers/multi-steppers.o
PULSE_PORT_CLEAR_NUM                              ..//utils/multi-steppers/multi-steppers.o
PULSE_PORT_DIR_NUM                                ..//utils/multi-steppers/multi-steppers.o
PULSE_PORT_NUM                                    ..//utils/multi-steppers/multi-steppers.o
PULSE_PORT_SET_NUM                                ..//utils/multi-steppers/multi-steppers.o
PWM1_IRQHandler                                   ..//common/Core/CM3/startup_LPC17xx.o
PendSV_Handler                                    ..//common/Core/CM3/startup_LPC17xx.o
Profiler                                          ..//utils/multi-steppers/multi-steppers.o
Pulse_Clear                                       ..//utils/multi-steppers/multi-steppers.o
                                                  ..//PHY/interrupts.o
QEI_CalculateRPM                                  ..//common/src/lpc17xx_qei.o
QEI_ConfigStructInit                              ..//common/src/lpc17xx_qei.o
QEI_DeInit                                        ..//common/src/lpc17xx_qei.o
QEI_GetIndex                                      ..//common/src/lpc17xx_qei.o
QEI_GetIntStatus                                  ..//common/src/lpc17xx_qei.o
QEI_GetPosition                                   ..//common/src/lpc17xx_qei.o
QEI_GetStatus                                     ..//common/src/lpc17xx_qei.o
QEI_GetTimer                                      ..//common/src/lpc17xx_qei.o
QEI_GetVelocity                                   ..//common/src/lpc17xx_qei.o
QEI_GetVelocityCap                                ..//common/src/lpc17xx_qei.o
QEI_IRQHandler                                    ..//common/Core/CM3/startup_LPC17xx.o
QEI_Init                                          ..//common/src/lpc17xx_qei.o
QEI_IntClear                                      ..//common/src/lpc17xx_qei.o
QEI_IntCmd                                        ..//common/src/lpc17xx_qei.o
QEI_IntSet                                        ..//common/src/lpc17xx_qei.o
QEI_Reset                                         ..//common/src/lpc17xx_qei.o
QEI_SetDigiFilter                                 ..//common/src/lpc17xx_qei.o
QEI_SetIndexComp                                  ..//common/src/lpc17xx_qei.o
QEI_SetMaxPosition                                ..//common/src/lpc17xx_qei.o
QEI_SetPositionComp                               ..//common/src/lpc17xx_qei.o
QEI_SetTimerReload                                ..//common/src/lpc17xx_qei.o
QEI_SetVelocityComp                               ..//common/src/lpc17xx_qei.o
RIT_IRQHandler                                    ..//common/Core/CM3/startup_LPC17xx.o
RTC_IRQHandler                                    ..//common/Core/CM3/startup_LPC17xx.o
Ringbuf_Empty                                     ..//utils/ringbuf/RingBuf.o
Ringbuf_Get_Front                                 ..//utils/ringbuf/RingBuf.o
Ringbuf_Init                                      ..//utils/ringbuf/RingBuf.o
Ringbuf_Pop_Front                                 ..//utils/ringbuf/RingBuf.o
Ringbuf_Put                                       ..//utils/ringbuf/RingBuf.o
SM_OPERATION::SM_OPERATION()                      ..//PHY/state_machines/SM_Operation.o
                                                  ..//PHY/main.o
SM_OPERATION::SM_OPERATION()                      ..//PHY/state_machines/SM_Operation.o
SM_OPERATION::stop_now()                          ..//PHY/state_machines/SM_Operation.o
                                                  ..//PHY/main.o
SM_OPERATION::update()                            ..//PHY/state_machines/SM_Operation.o
                                                  ..//PHY/main.o
SM_OPERATION::~SM_OPERATION()                     ..//PHY/state_machines/SM_Operation.o
SM_OPERATION::~SM_OPERATION()                     ..//PHY/main.o
                                                  ..//PHY/state_machines/SM_Operation.o
SPI_CS_High                                       ..//common/src/lpc17xx_spi.o
SPI_CS_Low                                        ..//common/src/lpc17xx_spi.o
SPI_ConfigClockRate                               ..//common/src/lpc17xx_spi.o
SPI_IRQHandler                                    ..//common/Core/CM3/startup_LPC17xx.o
SPI_Init                                          ..//common/src/lpc17xx_spi.o
SPI_RecvBlock_FIFO                                ..//common/src/lpc17xx_spi.o
SPI_RecvByte                                      ..//common/src/lpc17xx_spi.o
SPI_SendBlock_FIFO                                ..//common/src/lpc17xx_spi.o
SPI_SendByte                                      ..//common/src/lpc17xx_spi.o
SSP0_IRQHandler                                   ..//common/Core/CM3/startup_LPC17xx.o
SSP1_IRQHandler                                   ..//common/Core/CM3/startup_LPC17xx.o
SSP_CS_Force                                      ..//drivers/SPI/ssp_master.o
SSP_CS_Init                                       ..//drivers/SPI/ssp_master.o
SSP_ClearIntPending                               ..//common/src/lpc17xx_ssp.o
SSP_Cmd                                           ..//common/src/lpc17xx_ssp.o
                                                  ..//drivers/SPI/ssp_master.o
                                                  ..//common/src/lpc17xx_spi.o
SSP_ConfigStruct                                  ..//drivers/SPI/ssp_master.o
SSP_ConfigStructInit                              ..//common/src/lpc17xx_ssp.o
                                                  ..//drivers/SPI/ssp_master.o
                                                  ..//common/src/lpc17xx_spi.o
SSP_DMACmd                                        ..//common/src/lpc17xx_ssp.o
SSP_DeInit                                        ..//common/src/lpc17xx_ssp.o
SSP_GetDataSize                                   ..//common/src/lpc17xx_ssp.o
SSP_GetIntStatus                                  ..//common/src/lpc17xx_ssp.o
SSP_GetRawIntStatus                               ..//common/src/lpc17xx_ssp.o
SSP_GetRawIntStatusReg                            ..//common/src/lpc17xx_ssp.o
SSP_GetStatus                                     ..//common/src/lpc17xx_ssp.o
SSP_Init                                          ..//common/src/lpc17xx_ssp.o
                                                  ..//drivers/SPI/ssp_master.o
                                                  ..//common/src/lpc17xx_spi.o
SSP_IntConfig                                     ..//common/src/lpc17xx_ssp.o
SSP_LoopBackCmd                                   ..//common/src/lpc17xx_ssp.o
SSP_ReadWrite                                     ..//common/src/lpc17xx_ssp.o
SSP_ReceiveData                                   ..//common/src/lpc17xx_ssp.o
SSP_SendData                                      ..//common/src/lpc17xx_ssp.o
SSP_SlaveOutputCmd                                ..//common/src/lpc17xx_ssp.o
SVC_Handler                                       ..//common/Core/CM3/startup_LPC17xx.o
State_Machine::SM_pause(int)                      ..//utils/state_machine/state_machine.o
                                                  ..//PHY/state_machines/SM_Operation.o
State_Machine::SM_start()                         ..//utils/state_machine/state_machine.o
                                                  ..//PHY/state_machines/SM_Operation.o
                                                  ..//PHY/main.o
State_Machine::SM_started()                       ..//utils/state_machine/state_machine.o
                                                  ..//PHY/state_machines/SM_Operation.o
                                                  ..//PHY/main.o
State_Machine::SM_stop()                          ..//utils/state_machine/state_machine.o
                                                  ..//PHY/state_machines/SM_Operation.o
State_Machine::State_Machine()                    ..//utils/state_machine/state_machine.o
State_Machine::State_Machine()                    ..//utils/state_machine/state_machine.o
                                                  ..//PHY/state_machines/SM_Operation.o
State_Machine::State_Machine(int)                 ..//utils/state_machine/state_machine.o
State_Machine::State_Machine(int)                 ..//utils/state_machine/state_machine.o
State_Machine::next_state()                       ..//utils/state_machine/state_machine.o
State_Machine::next_state(int)                    ..//utils/state_machine/state_machine.o
State_Machine::reset()                            ..//utils/state_machine/state_machine.o
                                                  ..//PHY/state_machines/SM_Operation.o
State_Machine::update()                           ..//utils/state_machine/state_machine.o
State_Machine::update(int)                        ..//utils/state_machine/state_machine.o
                                                  ..//PHY/state_machines/SM_Operation.o
State_Machine::~State_Machine()                   ..//utils/state_machine/state_machine.o
State_Machine::~State_Machine()                   ..//utils/state_machine/state_machine.o
State_Machine::~State_Machine()                   ..//PHY/main.o
                                                  ..//PHY/state_machines/SM_Operation.o
SysTick_Handler                                   ..//common/Core/CM3/startup_LPC17xx.o
SystemCoreClock                                   ..//common/Core/CM3/system_LPC17xx.o
                                                  ..//PHY/main.o
                                                  ..//drivers/IAP/iap_driver.o
                                                  ..//common/src/lpc17xx_emac.o
                                                  ..//common/src/lpc17xx_clkpwr.o
SystemCoreClockUpdate                             ..//common/Core/CM3/system_LPC17xx.o
SystemInit                                        ..//common/Core/CM3/system_LPC17xx.o
                                                  ..//common/Core/CM3/startup_LPC17xx.o
TIMER0_IRQHandler                                 ..//PHY/interrupts.o
                                                  ..//common/Core/CM3/startup_LPC17xx.o
TIMER1_IRQHandler                                 ..//PHY/interrupts.o
                                                  ..//common/Core/CM3/startup_LPC17xx.o
TIMER2_IRQHandler                                 ..//PHY/interrupts.o
                                                  ..//common/Core/CM3/startup_LPC17xx.o
TIMER3_IRQHandler                                 ..//PHY/interrupts.o
                                                  ..//common/Core/CM3/startup_LPC17xx.o
TIM_ClearIntCapturePending                        ..//common/src/lpc17xx_timer.o
TIM_ClearIntPending                               ..//common/src/lpc17xx_timer.o
                                                  ..//PHY/interrupts.o
TIM_Cmd                                           ..//common/src/lpc17xx_timer.o
                                                  ..//drivers/timer/timer.o
TIM_ConfigCapture                                 ..//common/src/lpc17xx_timer.o
TIM_ConfigMatch                                   ..//common/src/lpc17xx_timer.o
                                                  ..//drivers/timer/timer.o
TIM_ConfigStruct                                  ..//drivers/timer/timer.o
TIM_ConfigStructInit                              ..//common/src/lpc17xx_timer.o
TIM_DeInit                                        ..//common/src/lpc17xx_timer.o
TIM_GetCaptureValue                               ..//common/src/lpc17xx_timer.o
TIM_GetIntCaptureStatus                           ..//common/src/lpc17xx_timer.o
TIM_GetIntStatus                                  ..//common/src/lpc17xx_timer.o
TIM_Init                                          ..//common/src/lpc17xx_timer.o
                                                  ..//drivers/timer/timer.o
TIM_MatchConfigStruct                             ..//drivers/timer/timer.o
TIM_ResetCounter                                  ..//common/src/lpc17xx_timer.o
                                                  ..//drivers/timer/timer.o
TIM_UpdateMatchValue                              ..//common/src/lpc17xx_timer.o
UART0Status                                       ..//drivers/UART/uart.o
UART0_IRQHandler                                  ..//drivers/UART/uart.o
                                                  ..//common/Core/CM3/startup_LPC17xx.o
UART1_IRQHandler                                  ..//common/Core/CM3/startup_LPC17xx.o
UART2Status                                       ..//drivers/UART/uart.o
UART2_IRQHandler                                  ..//drivers/UART/uart.o
                                                  ..//common/Core/CM3/startup_LPC17xx.o
UART3Status                                       ..//drivers/UART/uart.o
UART3_IRQHandler                                  ..//drivers/UART/uart.o
                                                  ..//common/Core/CM3/startup_LPC17xx.o
UARTGetChar                                       ..//common/src/debug_frmwrk.o
UARTInit                                          ..//drivers/UART/uart.o
UARTPutChar                                       ..//common/src/debug_frmwrk.o
UARTPutDec                                        ..//common/src/debug_frmwrk.o
UARTPutDec16                                      ..//common/src/debug_frmwrk.o
UARTPutDec32                                      ..//common/src/debug_frmwrk.o
UARTPutHex                                        ..//common/src/debug_frmwrk.o
UARTPutHex16                                      ..//common/src/debug_frmwrk.o
UARTPutHex32                                      ..//common/src/debug_frmwrk.o
UARTPuts                                          ..//common/src/debug_frmwrk.o
                                                  ..//utils/printf/ee_printf-arg.o
UARTPuts_                                         ..//common/src/debug_frmwrk.o
UART_ABClearIntPending                            ..//common/src/lpc17xx_uart.o
UART_ABCmd                                        ..//common/src/lpc17xx_uart.o
UART_CheckBusy                                    ..//common/src/lpc17xx_uart.o
UART_ConfigStructInit                             ..//common/src/lpc17xx_uart.o
                                                  ..//common/src/debug_frmwrk.o
UART_DeInit                                       ..//common/src/lpc17xx_uart.o
UART_FIFOConfig                                   ..//common/src/lpc17xx_uart.o
UART_FIFOConfigStructInit                         ..//common/src/lpc17xx_uart.o
UART_ForceBreak                                   ..//common/src/lpc17xx_uart.o
UART_FullModemConfigMode                          ..//common/src/lpc17xx_uart.o
UART_FullModemForcePinState                       ..//common/src/lpc17xx_uart.o
UART_FullModemGetStatus                           ..//common/src/lpc17xx_uart.o
UART_GetIntId                                     ..//common/src/lpc17xx_uart.o
UART_GetLineStatus                                ..//common/src/lpc17xx_uart.o
UART_Init                                         ..//common/src/lpc17xx_uart.o
                                                  ..//common/src/debug_frmwrk.o
UART_Init0                                        ..//drivers/UART/uart.o
UART_Init2                                        ..//drivers/UART/uart.o
UART_Init3                                        ..//drivers/UART/uart.o
UART_IntConfig                                    ..//common/src/lpc17xx_uart.o
UART_IrDACmd                                      ..//common/src/lpc17xx_uart.o
UART_IrDAInvtInputCmd                             ..//common/src/lpc17xx_uart.o
UART_IrDAPulseDivConfig                           ..//common/src/lpc17xx_uart.o
UART_RS485Config                                  ..//common/src/lpc17xx_uart.o
UART_RS485ReceiverCmd                             ..//common/src/lpc17xx_uart.o
UART_RS485Send                                    ..//common/src/lpc17xx_uart.o
UART_RS485SendData                                ..//common/src/lpc17xx_uart.o
UART_RS485SendSlvAddr                             ..//common/src/lpc17xx_uart.o
UART_Receive                                      ..//common/src/lpc17xx_uart.o
                                                  ..//common/src/debug_frmwrk.o
UART_ReceiveByte                                  ..//common/src/lpc17xx_uart.o
UART_Send                                         ..//common/src/lpc17xx_uart.o
                                                  ..//common/src/debug_frmwrk.o
UART_SendByte                                     ..//common/src/lpc17xx_uart.o
UART_TxCmd                                        ..//common/src/lpc17xx_uart.o
                                                  ..//common/src/debug_frmwrk.o
USBGetDescriptor                                  ..//drivers/USB/usbstdreq.o
USBHandleControlTransfer                          ..//drivers/USB/usbcontrol.o
                                                  ..//drivers/USB/usbinit.o
USBHandleStandardRequest                          ..//drivers/USB/usbstdreq.o
                                                  ..//drivers/USB/usbinit.o
USBHwConfigDevice                                 ..//drivers/USB/usbhw_lpc.o
                                                  ..//drivers/USB/usbstdreq.o
USBHwConnect                                      ..//drivers/USB/usbhw_lpc.o
                                                  ..//utils/usbSerial/usbSerial.o
USBHwEPConfig                                     ..//drivers/USB/usbhw_lpc.o
                                                  ..//drivers/USB/usbstdreq.o
                                                  ..//drivers/USB/usbinit.o
USBHwEPGetStatus                                  ..//drivers/USB/usbhw_lpc.o
                                                  ..//drivers/USB/usbstdreq.o
USBHwEPRead                                       ..//drivers/USB/usbhw_lpc.o
                                                  ..//utils/usbSerial/usbSerial.o
                                                  ..//drivers/USB/usbcontrol.o
USBHwEPStall                                      ..//drivers/USB/usbhw_lpc.o
                                                  ..//drivers/USB/usbstdreq.o
                                                  ..//drivers/USB/usbcontrol.o
USBHwEPWrite                                      ..//drivers/USB/usbhw_lpc.o
                                                  ..//utils/usbSerial/usbSerial.o
                                                  ..//drivers/USB/usbcontrol.o
USBHwISR                                          ..//drivers/USB/usbhw_lpc.o
                                                  ..//utils/usbSerial/usbSerial.o
USBHwInit                                         ..//drivers/USB/usbhw_lpc.o
                                                  ..//drivers/USB/usbinit.o
USBHwNakIntEnable                                 ..//drivers/USB/usbhw_lpc.o
                                                  ..//utils/usbSerial/usbSerial.o
USBHwRegisterDevIntHandler                        ..//drivers/USB/usbhw_lpc.o
                                                  ..//drivers/USB/usbinit.o
USBHwRegisterEPIntHandler                         ..//drivers/USB/usbhw_lpc.o
                                                  ..//utils/usbSerial/usbSerial.o
                                                  ..//drivers/USB/usbinit.o
USBHwRegisterFrameHandler                         ..//drivers/USB/usbhw_lpc.o
                                                  ..//utils/usbSerial/usbSerial.o
USBHwSetAddress                                   ..//drivers/USB/usbhw_lpc.o
                                                  ..//drivers/USB/usbstdreq.o
USBInit                                           ..//drivers/USB/usbinit.o
                                                  ..//utils/usbSerial/usbSerial.o
USBRegisterCustomReqHandler                       ..//drivers/USB/usbstdreq.o
USBRegisterDescriptors                            ..//drivers/USB/usbstdreq.o
                                                  ..//utils/usbSerial/usbSerial.o
USBRegisterRequestHandler                         ..//drivers/USB/usbcontrol.o
                                                  ..//utils/usbSerial/usbSerial.o
                                                  ..//drivers/USB/usbinit.o
USB_IRQHandler                                    ..//utils/usbSerial/usbSerial.o
                                                  ..//common/Core/CM3/startup_LPC17xx.o
Uart_ChkRcv0                                      ..//drivers/UART/uart.o
Uart_ChkRcv2                                      ..//drivers/UART/uart.o
                                                  ..//PHY/interrupts.o
                                                  ..//utils/modbus/modbus.o
Uart_ChkRcv3                                      ..//drivers/UART/uart.o
Uart_GetC0                                        ..//drivers/UART/uart.o
Uart_GetC2                                        ..//drivers/UART/uart.o
                                                  ..//PHY/interrupts.o
                                                  ..//utils/modbus/modbus.o
Uart_GetC3                                        ..//drivers/UART/uart.o
Uart_GetCh0                                       ..//drivers/UART/uart.o
Uart_GetCh2                                       ..//drivers/UART/uart.o
Uart_PutCharBuf0                                  ..//drivers/UART/uart.o
Uart_PutCharBuf2                                  ..//drivers/UART/uart.o
Uart_PutCharBuf3                                  ..//drivers/UART/uart.o
Uart_PutStrBuf0                                   ..//drivers/UART/uart.o
Uart_PutStrBuf2                                   ..//drivers/UART/uart.o
Uart_PutStrBuf3                                   ..//drivers/UART/uart.o
Uart_SendCharArray2                               ..//drivers/UART/uart.o
                                                  ..//utils/modbus/SimpleModbusSlave_1769.o
Uart_SendCharArray3                               ..//drivers/UART/uart.o
Uart_StartSending2                                ..//drivers/UART/uart.o
Uart_StartSending3                                ..//drivers/UART/uart.o
UpdatePTR(unsigned short*)                        ..//PHY/main.o
UsageFault_Handler                                ..//common/Core/CM3/startup_LPC17xx.o
VCOM_ChkRcv                                       ..//utils/usbSerial/usbSerial.o
                                                  ..//PHY/interrupts.o
                                                  ..//utils/modbus/modbus.o
VCOM_GetCh                                        ..//utils/usbSerial/usbSerial.o
                                                  ..//PHY/interrupts.o
                                                  ..//utils/modbus/modbus.o
VCOM_RxBuff_init                                  ..//utils/usbSerial/usbSerial.o
VCOM_TxBuff_init                                  ..//utils/usbSerial/usbSerial.o
VCOM_getc                                         ..//utils/usbSerial/usbSerial.o
VCOM_getc_echo                                    ..//utils/usbSerial/usbSerial.o
VCOM_getchar                                      ..//utils/usbSerial/usbSerial.o
VCOM_getchar1                                     ..//utils/usbSerial/usbSerial.o
VCOM_getcharN                                     ..//utils/usbSerial/usbSerial.o
VCOM_gets                                         ..//utils/usbSerial/usbSerial.o
VCOM_gets_echo                                    ..//utils/usbSerial/usbSerial.o
VCOM_init                                         ..//utils/usbSerial/usbSerial.o
VCOM_printf                                       ..//utils/usbSerial/usbSerial.o
VCOM_putHex                                       ..//utils/usbSerial/usbSerial.o
VCOM_putc                                         ..//utils/usbSerial/usbSerial.o
VCOM_putchar                                      ..//utils/usbSerial/usbSerial.o
                                                  ..//utils/modbus/SimpleModbusSlave_1769.o
VCOM_puts                                         ..//utils/usbSerial/usbSerial.o
WDT_IRQHandler                                    ..//common/Core/CM3/startup_LPC17xx.o
_Balloc                                           c:/program files (x86)/codesourcery/sourcery g++ lite/bin/../lib/gcc/arm-none-eabi/4.4.1/../../../../arm-none-eabi/lib/thumb2\libc.a(lib_a-mprec.o)
                                                  c:/program files (x86)/codesourcery/sourcery g++ lite/bin/../lib/gcc/arm-none-eabi/4.4.1/../../../../arm-none-eabi/lib/thumb2\libc.a(lib_a-dtoa.o)
_Bfree                                            c:/program files (x86)/codesourcery/sourcery g++ lite/bin/../lib/gcc/arm-none-eabi/4.4.1/../../../../arm-none-eabi/lib/thumb2\libc.a(lib_a-mprec.o)
                                                  c:/program files (x86)/codesourcery/sourcery g++ lite/bin/../lib/gcc/arm-none-eabi/4.4.1/../../../../arm-none-eabi/lib/thumb2\libc.a(lib_a-dtoa.o)
_Jv_RegisterClasses                               c:/program files (x86)/codesourcery/sourcery g++ lite/bin/../lib/gcc/arm-none-eabi/4.4.1/thumb2/crtbegin.o
_PathLocale                                       c:/program files (x86)/codesourcery/sourcery g++ lite/bin/../lib/gcc/arm-none-eabi/4.4.1/../../../../arm-none-eabi/lib/thumb2\libc.a(lib_a-locale.o)
__LDREXB                                          ..//common/Core/CM3/core_cm3.o
__LDREXH                                          ..//common/Core/CM3/core_cm3.o
__LDREXW                                          ..//common/Core/CM3/core_cm3.o
__RBIT                                            ..//common/Core/CM3/core_cm3.o
__REV                                             ..//common/Core/CM3/core_cm3.o
__REV16                                           ..//common/Core/CM3/core_cm3.o
__REVSH                                           ..//common/Core/CM3/core_cm3.o
__STREXB                                          ..//common/Core/CM3/core_cm3.o
__STREXH                                          ..//common/Core/CM3/core_cm3.o
__STREXW                                          ..//common/Core/CM3/core_cm3.o
__adddf3                                          c:/program files (x86)/codesourcery/sourcery g++ lite/bin/../lib/gcc/arm-none-eabi/4.4.1/thumb2\libgcc.a(_arm_addsubdf3.o)
__addsf3                                          c:/program files (x86)/codesourcery/sourcery g++ lite/bin/../lib/gcc/arm-none-eabi/4.4.1/thumb2\libgcc.a(_arm_addsubsf3.o)
__aeabi_atexit                                    ..//common/src/mini_cpp.o
                                                  ..//PHY/main.o
__aeabi_cdcmpeq                                   c:/program files (x86)/codesourcery/sourcery g++ lite/bin/../lib/gcc/arm-none-eabi/4.4.1/thumb2\libgcc.a(_arm_cmpdf2.o)
__aeabi_cdcmple                                   c:/program files (x86)/codesourcery/sourcery g++ lite/bin/../lib/gcc/arm-none-eabi/4.4.1/thumb2\libgcc.a(_arm_cmpdf2.o)
__aeabi_cdrcmple                                  c:/program files (x86)/codesourcery/sourcery g++ lite/bin/../lib/gcc/arm-none-eabi/4.4.1/thumb2\libgcc.a(_arm_cmpdf2.o)
__aeabi_cfcmpeq                                   c:/program files (x86)/codesourcery/sourcery g++ lite/bin/../lib/gcc/arm-none-eabi/4.4.1/thumb2\libgcc.a(_arm_cmpsf2.o)
__aeabi_cfcmple                                   c:/program files (x86)/codesourcery/sourcery g++ lite/bin/../lib/gcc/arm-none-eabi/4.4.1/thumb2\libgcc.a(_arm_cmpsf2.o)
__aeabi_cfrcmple                                  c:/program files (x86)/codesourcery/sourcery g++ lite/bin/../lib/gcc/arm-none-eabi/4.4.1/thumb2\libgcc.a(_arm_cmpsf2.o)
__aeabi_d2f                                       c:/program files (x86)/codesourcery/sourcery g++ lite/bin/../lib/gcc/arm-none-eabi/4.4.1/thumb2\libgcc.a(_arm_truncdfsf2.o)
                                                  ..//utils/multi-steppers/multi-steppers.o
__aeabi_d2iz                                      c:/program files (x86)/codesourcery/sourcery g++ lite/bin/../lib/gcc/arm-none-eabi/4.4.1/thumb2\libgcc.a(_arm_fixdfsi.o)
                                                  c:/program files (x86)/codesourcery/sourcery g++ lite/bin/../lib/gcc/arm-none-eabi/4.4.1/../../../../arm-none-eabi/lib/thumb2\libc.a(lib_a-dtoa.o)
                                                  ..//PHY/config_data.o
__aeabi_dadd                                      c:/program files (x86)/codesourcery/sourcery g++ lite/bin/../lib/gcc/arm-none-eabi/4.4.1/thumb2\libgcc.a(_arm_addsubdf3.o)
                                                  c:/program files (x86)/codesourcery/sourcery g++ lite/bin/../lib/gcc/arm-none-eabi/4.4.1/../../../../arm-none-eabi/lib/thumb2\libc.a(lib_a-dtoa.o)
                                                  c:/program files (x86)/codesourcery/sourcery g++ lite/bin/../lib/gcc/arm-none-eabi/4.4.1/../../../../arm-none-eabi/lib/thumb2\libm.a(lib_a-s_ceil.o)
                                                  ..//utils/multi-steppers/multi-steppers.o
__aeabi_dcmpeq                                    c:/program files (x86)/codesourcery/sourcery g++ lite/bin/../lib/gcc/arm-none-eabi/4.4.1/thumb2\libgcc.a(_arm_cmpdf2.o)
                                                  c:/program files (x86)/codesourcery/sourcery g++ lite/bin/../lib/gcc/arm-none-eabi/4.4.1/../../../../arm-none-eabi/lib/thumb2\libc.a(lib_a-svfprintf.o)
                                                  c:/program files (x86)/codesourcery/sourcery g++ lite/bin/../lib/gcc/arm-none-eabi/4.4.1/../../../../arm-none-eabi/lib/thumb2\libc.a(lib_a-dtoa.o)
                                                  c:/program files (x86)/codesourcery/sourcery g++ lite/bin/../lib/gcc/arm-none-eabi/4.4.1/../../../../arm-none-eabi/lib/thumb2\libc.a(lib_a-ecvtbuf.o)
                                                  ..//utils/printf/ee_printf-arg.o
__aeabi_dcmpge                                    c:/program files (x86)/codesourcery/sourcery g++ lite/bin/../lib/gcc/arm-none-eabi/4.4.1/thumb2\libgcc.a(_arm_cmpdf2.o)
                                                  c:/program files (x86)/codesourcery/sourcery g++ lite/bin/../lib/gcc/arm-none-eabi/4.4.1/../../../../arm-none-eabi/lib/thumb2\libc.a(lib_a-dtoa.o)
__aeabi_dcmpgt                                    c:/program files (x86)/codesourcery/sourcery g++ lite/bin/../lib/gcc/arm-none-eabi/4.4.1/thumb2\libgcc.a(_arm_cmpdf2.o)
                                                  c:/program files (x86)/codesourcery/sourcery g++ lite/bin/../lib/gcc/arm-none-eabi/4.4.1/../../../../arm-none-eabi/lib/thumb2\libc.a(lib_a-dtoa.o)
                                                  c:/program files (x86)/codesourcery/sourcery g++ lite/bin/../lib/gcc/arm-none-eabi/4.4.1/../../../../arm-none-eabi/lib/thumb2\libc.a(lib_a-ecvtbuf.o)
                                                  c:/program files (x86)/codesourcery/sourcery g++ lite/bin/../lib/gcc/arm-none-eabi/4.4.1/../../../../arm-none-eabi/lib/thumb2\libm.a(lib_a-s_ceil.o)
                                                  ..//utils/multi-steppers/multi-steppers.o
__aeabi_dcmple                                    c:/program files (x86)/codesourcery/sourcery g++ lite/bin/../lib/gcc/arm-none-eabi/4.4.1/thumb2\libgcc.a(_arm_cmpdf2.o)
                                                  c:/program files (x86)/codesourcery/sourcery g++ lite/bin/../lib/gcc/arm-none-eabi/4.4.1/../../../../arm-none-eabi/lib/thumb2\libc.a(lib_a-ecvtbuf.o)
__aeabi_dcmplt                                    c:/program files (x86)/codesourcery/sourcery g++ lite/bin/../lib/gcc/arm-none-eabi/4.4.1/thumb2\libgcc.a(_arm_cmpdf2.o)
                                                  c:/program files (x86)/codesourcery/sourcery g++ lite/bin/../lib/gcc/arm-none-eabi/4.4.1/../../../../arm-none-eabi/lib/thumb2\libc.a(lib_a-svfprintf.o)
                                                  c:/program files (x86)/codesourcery/sourcery g++ lite/bin/../lib/gcc/arm-none-eabi/4.4.1/../../../../arm-none-eabi/lib/thumb2\libc.a(lib_a-dtoa.o)
                                                  c:/program files (x86)/codesourcery/sourcery g++ lite/bin/../lib/gcc/arm-none-eabi/4.4.1/../../../../arm-none-eabi/lib/thumb2\libc.a(lib_a-ecvtbuf.o)
                                                  ..//utils/multi-steppers/multi-steppers.o
                                                  ..//utils/printf/ee_printf-arg.o
__aeabi_ddiv                                      c:/program files (x86)/codesourcery/sourcery g++ lite/bin/../lib/gcc/arm-none-eabi/4.4.1/thumb2\libgcc.a(_arm_muldivdf3.o)
                                                  c:/program files (x86)/codesourcery/sourcery g++ lite/bin/../lib/gcc/arm-none-eabi/4.4.1/../../../../arm-none-eabi/lib/thumb2\libc.a(lib_a-dtoa.o)
                                                  c:/program files (x86)/codesourcery/sourcery g++ lite/bin/../lib/gcc/arm-none-eabi/4.4.1/../../../../arm-none-eabi/lib/thumb2\libc.a(lib_a-mprec.o)
                                                  ..//utils/multi-steppers/multi-steppers.o
__aeabi_dmul                                      c:/program files (x86)/codesourcery/sourcery g++ lite/bin/../lib/gcc/arm-none-eabi/4.4.1/thumb2\libgcc.a(_arm_muldivdf3.o)
                                                  c:/program files (x86)/codesourcery/sourcery g++ lite/bin/../lib/gcc/arm-none-eabi/4.4.1/../../../../arm-none-eabi/lib/thumb2\libc.a(lib_a-dtoa.o)
                                                  c:/program files (x86)/codesourcery/sourcery g++ lite/bin/../lib/gcc/arm-none-eabi/4.4.1/../../../../arm-none-eabi/lib/thumb2\libc.a(lib_a-mprec.o)
                                                  ..//utils/multi-steppers/multi-steppers.o
__aeabi_drsub                                     c:/program files (x86)/codesourcery/sourcery g++ lite/bin/../lib/gcc/arm-none-eabi/4.4.1/thumb2\libgcc.a(_arm_addsubdf3.o)
__aeabi_dsub                                      c:/program files (x86)/codesourcery/sourcery g++ lite/bin/../lib/gcc/arm-none-eabi/4.4.1/thumb2\libgcc.a(_arm_addsubdf3.o)
                                                  c:/program files (x86)/codesourcery/sourcery g++ lite/bin/../lib/gcc/arm-none-eabi/4.4.1/../../../../arm-none-eabi/lib/thumb2\libc.a(lib_a-dtoa.o)
__aeabi_f2d                                       c:/program files (x86)/codesourcery/sourcery g++ lite/bin/../lib/gcc/arm-none-eabi/4.4.1/thumb2\libgcc.a(_arm_addsubdf3.o)
                                                  ..//PHY/config_data.o
                                                  ..//utils/multi-steppers/multi-steppers.o
__aeabi_f2iz                                      c:/program files (x86)/codesourcery/sourcery g++ lite/bin/../lib/gcc/arm-none-eabi/4.4.1/thumb2\libgcc.a(_arm_fixsfsi.o)
                                                  ..//utils/multi-steppers/multi-steppers.o
__aeabi_fadd                                      c:/program files (x86)/codesourcery/sourcery g++ lite/bin/../lib/gcc/arm-none-eabi/4.4.1/thumb2\libgcc.a(_arm_addsubsf3.o)
                                                  ..//utils/multi-steppers/multi-steppers.o
__aeabi_fcmpeq                                    c:/program files (x86)/codesourcery/sourcery g++ lite/bin/../lib/gcc/arm-none-eabi/4.4.1/thumb2\libgcc.a(_arm_cmpsf2.o)
                                                  ..//utils/multi-steppers/multi-steppers.o
__aeabi_fcmpge                                    c:/program files (x86)/codesourcery/sourcery g++ lite/bin/../lib/gcc/arm-none-eabi/4.4.1/thumb2\libgcc.a(_arm_cmpsf2.o)
__aeabi_fcmpgt                                    c:/program files (x86)/codesourcery/sourcery g++ lite/bin/../lib/gcc/arm-none-eabi/4.4.1/thumb2\libgcc.a(_arm_cmpsf2.o)
                                                  ..//utils/multi-steppers/multi-steppers.o
__aeabi_fcmple                                    c:/program files (x86)/codesourcery/sourcery g++ lite/bin/../lib/gcc/arm-none-eabi/4.4.1/thumb2\libgcc.a(_arm_cmpsf2.o)
                                                  ..//utils/multi-steppers/multi-steppers.o
__aeabi_fcmplt                                    c:/program files (x86)/codesourcery/sourcery g++ lite/bin/../lib/gcc/arm-none-eabi/4.4.1/thumb2\libgcc.a(_arm_cmpsf2.o)
                                                  ..//utils/multi-steppers/multi-steppers.o
__aeabi_fdiv                                      c:/program files (x86)/codesourcery/sourcery g++ lite/bin/../lib/gcc/arm-none-eabi/4.4.1/thumb2\libgcc.a(_arm_muldivsf3.o)
                                                  ..//PHY/config_data.o
                                                  ..//utils/multi-steppers/multi-steppers.o
__aeabi_fmul                                      c:/program files (x86)/codesourcery/sourcery g++ lite/bin/../lib/gcc/arm-none-eabi/4.4.1/thumb2\libgcc.a(_arm_muldivsf3.o)
                                                  ..//utils/multi-steppers/multi-steppers.o
__aeabi_frsub                                     c:/program files (x86)/codesourcery/sourcery g++ lite/bin/../lib/gcc/arm-none-eabi/4.4.1/thumb2\libgcc.a(_arm_addsubsf3.o)
__aeabi_fsub                                      c:/program files (x86)/codesourcery/sourcery g++ lite/bin/../lib/gcc/arm-none-eabi/4.4.1/thumb2\libgcc.a(_arm_addsubsf3.o)
                                                  ..//utils/multi-steppers/multi-steppers.o
__aeabi_i2d                                       c:/program files (x86)/codesourcery/sourcery g++ lite/bin/../lib/gcc/arm-none-eabi/4.4.1/thumb2\libgcc.a(_arm_addsubdf3.o)
                                                  c:/program files (x86)/codesourcery/sourcery g++ lite/bin/../lib/gcc/arm-none-eabi/4.4.1/../../../../arm-none-eabi/lib/thumb2\libc.a(lib_a-dtoa.o)
                                                  ..//utils/multi-steppers/multi-steppers.o
__aeabi_i2f                                       c:/program files (x86)/codesourcery/sourcery g++ lite/bin/../lib/gcc/arm-none-eabi/4.4.1/thumb2\libgcc.a(_arm_addsubsf3.o)
                                                  ..//PHY/config_data.o
                                                  ..//utils/multi-steppers/multi-steppers.o
__aeabi_idiv0                                     c:/program files (x86)/codesourcery/sourcery g++ lite/bin/../lib/gcc/arm-none-eabi/4.4.1/thumb2\libgcc.a(_dvmd_tls.o)
                                                  c:/program files (x86)/codesourcery/sourcery g++ lite/bin/../lib/gcc/arm-none-eabi/4.4.1/thumb2\libgcc.a(_udivsi3.o)
__aeabi_l2d                                       c:/program files (x86)/codesourcery/sourcery g++ lite/bin/../lib/gcc/arm-none-eabi/4.4.1/thumb2\libgcc.a(_arm_addsubdf3.o)
                                                  ..//utils/multi-steppers/multi-steppers.o
__aeabi_l2f                                       c:/program files (x86)/codesourcery/sourcery g++ lite/bin/../lib/gcc/arm-none-eabi/4.4.1/thumb2\libgcc.a(_arm_addsubsf3.o)
__aeabi_ldiv0                                     c:/program files (x86)/codesourcery/sourcery g++ lite/bin/../lib/gcc/arm-none-eabi/4.4.1/thumb2\libgcc.a(_dvmd_tls.o)
                                                  c:/program files (x86)/codesourcery/sourcery g++ lite/bin/../lib/gcc/arm-none-eabi/4.4.1/thumb2\libgcc.a(_aeabi_uldivmod.o)
__aeabi_ui2d                                      c:/program files (x86)/codesourcery/sourcery g++ lite/bin/../lib/gcc/arm-none-eabi/4.4.1/thumb2\libgcc.a(_arm_addsubdf3.o)
                                                  c:/program files (x86)/codesourcery/sourcery g++ lite/bin/../lib/gcc/arm-none-eabi/4.4.1/../../../../arm-none-eabi/lib/thumb2\libc.a(lib_a-dtoa.o)
__aeabi_ui2f                                      c:/program files (x86)/codesourcery/sourcery g++ lite/bin/../lib/gcc/arm-none-eabi/4.4.1/thumb2\libgcc.a(_arm_addsubsf3.o)
__aeabi_uidiv                                     c:/program files (x86)/codesourcery/sourcery g++ lite/bin/../lib/gcc/arm-none-eabi/4.4.1/thumb2\libgcc.a(_udivsi3.o)
                                                  c:/program files (x86)/codesourcery/sourcery g++ lite/bin/../lib/gcc/arm-none-eabi/4.4.1/thumb2\libgcc.a(_udivdi3.o)
                                                  c:/program files (x86)/codesourcery/sourcery g++ lite/bin/../lib/gcc/arm-none-eabi/4.4.1/thumb2\libgcc.a(_divdi3.o)
                                                  c:/program files (x86)/codesourcery/sourcery g++ lite/bin/../lib/gcc/arm-none-eabi/4.4.1/../../../../arm-none-eabi/lib/thumb2\libc.a(lib_a-dtoa.o)
__aeabi_uidivmod                                  c:/program files (x86)/codesourcery/sourcery g++ lite/bin/../lib/gcc/arm-none-eabi/4.4.1/thumb2\libgcc.a(_udivsi3.o)
                                                  c:/program files (x86)/codesourcery/sourcery g++ lite/bin/../lib/gcc/arm-none-eabi/4.4.1/thumb2\libgcc.a(_udivdi3.o)
                                                  c:/program files (x86)/codesourcery/sourcery g++ lite/bin/../lib/gcc/arm-none-eabi/4.4.1/thumb2\libgcc.a(_divdi3.o)
__aeabi_ul2d                                      c:/program files (x86)/codesourcery/sourcery g++ lite/bin/../lib/gcc/arm-none-eabi/4.4.1/thumb2\libgcc.a(_arm_addsubdf3.o)
__aeabi_ul2f                                      c:/program files (x86)/codesourcery/sourcery g++ lite/bin/../lib/gcc/arm-none-eabi/4.4.1/thumb2\libgcc.a(_arm_addsubsf3.o)
__aeabi_uldivmod                                  c:/program files (x86)/codesourcery/sourcery g++ lite/bin/../lib/gcc/arm-none-eabi/4.4.1/thumb2\libgcc.a(_aeabi_uldivmod.o)
                                                  c:/program files (x86)/codesourcery/sourcery g++ lite/bin/../lib/gcc/arm-none-eabi/4.4.1/../../../../arm-none-eabi/lib/thumb2\libc.a(lib_a-svfprintf.o)
                                                  ..//utils/delay_timer/delay_timer.o
                                                  ..//common/src/lpc17xx_qei.o
                                                  ..//common/src/lpc17xx_timer.o
__any_on                                          c:/program files (x86)/codesourcery/sourcery g++ lite/bin/../lib/gcc/arm-none-eabi/4.4.1/../../../../arm-none-eabi/lib/thumb2\libc.a(lib_a-mprec.o)
__b2d                                             c:/program files (x86)/codesourcery/sourcery g++ lite/bin/../lib/gcc/arm-none-eabi/4.4.1/../../../../arm-none-eabi/lib/thumb2\libc.a(lib_a-mprec.o)
__cmpdf2                                          c:/program files (x86)/codesourcery/sourcery g++ lite/bin/../lib/gcc/arm-none-eabi/4.4.1/thumb2\libgcc.a(_arm_cmpdf2.o)
__cmpsf2                                          c:/program files (x86)/codesourcery/sourcery g++ lite/bin/../lib/gcc/arm-none-eabi/4.4.1/thumb2\libgcc.a(_arm_cmpsf2.o)
__copybits                                        c:/program files (x86)/codesourcery/sourcery g++ lite/bin/../lib/gcc/arm-none-eabi/4.4.1/../../../../arm-none-eabi/lib/thumb2\libc.a(lib_a-mprec.o)
__cs3_argc                                        c:/program files (x86)/codesourcery/sourcery g++ lite/bin/../lib/gcc/arm-none-eabi/4.4.1/../../../../arm-none-eabi/lib/thumb2\libcs3.a(start_c.o)
__cs3_argv                                        c:/program files (x86)/codesourcery/sourcery g++ lite/bin/../lib/gcc/arm-none-eabi/4.4.1/../../../../arm-none-eabi/lib/thumb2\libcs3.a(start_c.o)
__cs3_heap_end                                    ..//common/Core/CM3/startup_LPC17xx.o
__cs3_heap_start                                  ..//common/Core/CM3/startup_LPC17xx.o
__cs3_interrupt_vector_cortex_m                   ..//common/Core/CM3/startup_LPC17xx.o
__cs3_premain                                     c:/program files (x86)/codesourcery/sourcery g++ lite/bin/../lib/gcc/arm-none-eabi/4.4.1/../../../../arm-none-eabi/lib/thumb2\libcs3.a(start_c.o)
__cs3_region_num                                  c:/program files (x86)/codesourcery/sourcery g++ lite/bin/../lib/gcc/arm-none-eabi/4.4.1/../../../../arm-none-eabi/lib/thumb2\libcs3.a(start_c.o)
__cs3_regions                                     c:/program files (x86)/codesourcery/sourcery g++ lite/bin/../lib/gcc/arm-none-eabi/4.4.1/../../../../arm-none-eabi/lib/thumb2\libcs3.a(start_c.o)
__cs3_reset                                       ..//common/Core/CM3/startup_LPC17xx.o
__cs3_reset_cortex_m                              ..//common/Core/CM3/startup_LPC17xx.o
__cs3_stack                                       c:/program files (x86)/codesourcery/sourcery g++ lite/bin/../lib/gcc/arm-none-eabi/4.4.1/../../../../arm-none-eabi/lib/thumb2\libcs3unhosted.a(unhosted-start.o)
                                                  ..//common/Core/CM3/startup_LPC17xx.o
__cs3_stack_mem                                   ..//common/Core/CM3/startup_LPC17xx.o
__cs3_stack_size                                  ..//common/Core/CM3/startup_LPC17xx.o
__cs3_start_c                                     c:/program files (x86)/codesourcery/sourcery g++ lite/bin/../lib/gcc/arm-none-eabi/4.4.1/../../../../arm-none-eabi/lib/thumb2\libcs3.a(start_c.o)
                                                  c:/program files (x86)/codesourcery/sourcery g++ lite/bin/../lib/gcc/arm-none-eabi/4.4.1/../../../../arm-none-eabi/lib/thumb2\libcs3unhosted.a(unhosted-start.o)
__d2b                                             c:/program files (x86)/codesourcery/sourcery g++ lite/bin/../lib/gcc/arm-none-eabi/4.4.1/../../../../arm-none-eabi/lib/thumb2\libc.a(lib_a-mprec.o)
                                                  c:/program files (x86)/codesourcery/sourcery g++ lite/bin/../lib/gcc/arm-none-eabi/4.4.1/../../../../arm-none-eabi/lib/thumb2\libc.a(lib_a-dtoa.o)
__divdf3                                          c:/program files (x86)/codesourcery/sourcery g++ lite/bin/../lib/gcc/arm-none-eabi/4.4.1/thumb2\libgcc.a(_arm_muldivdf3.o)
__divdi3                                          c:/program files (x86)/codesourcery/sourcery g++ lite/bin/../lib/gcc/arm-none-eabi/4.4.1/thumb2\libgcc.a(_divdi3.o)
                                                  c:/program files (x86)/codesourcery/sourcery g++ lite/bin/../lib/gcc/arm-none-eabi/4.4.1/thumb2\libgcc.a(bpabi.o)
__divsf3                                          c:/program files (x86)/codesourcery/sourcery g++ lite/bin/../lib/gcc/arm-none-eabi/4.4.1/thumb2\libgcc.a(_arm_muldivsf3.o)
__dso_handle                                      c:/program files (x86)/codesourcery/sourcery g++ lite/bin/../lib/gcc/arm-none-eabi/4.4.1/thumb2/crtbegin.o
                                                  ..//PHY/main.o
__eqdf2                                           c:/program files (x86)/codesourcery/sourcery g++ lite/bin/../lib/gcc/arm-none-eabi/4.4.1/thumb2\libgcc.a(_arm_cmpdf2.o)
__eqsf2                                           c:/program files (x86)/codesourcery/sourcery g++ lite/bin/../lib/gcc/arm-none-eabi/4.4.1/thumb2\libgcc.a(_arm_cmpsf2.o)
__extendsfdf2                                     c:/program files (x86)/codesourcery/sourcery g++ lite/bin/../lib/gcc/arm-none-eabi/4.4.1/thumb2\libgcc.a(_arm_addsubdf3.o)
__fixdfsi                                         c:/program files (x86)/codesourcery/sourcery g++ lite/bin/../lib/gcc/arm-none-eabi/4.4.1/thumb2\libgcc.a(_arm_fixdfsi.o)
__fixsfsi                                         c:/program files (x86)/codesourcery/sourcery g++ lite/bin/../lib/gcc/arm-none-eabi/4.4.1/thumb2\libgcc.a(_arm_fixsfsi.o)
__floatdidf                                       c:/program files (x86)/codesourcery/sourcery g++ lite/bin/../lib/gcc/arm-none-eabi/4.4.1/thumb2\libgcc.a(_arm_addsubdf3.o)
__floatdisf                                       c:/program files (x86)/codesourcery/sourcery g++ lite/bin/../lib/gcc/arm-none-eabi/4.4.1/thumb2\libgcc.a(_arm_addsubsf3.o)
__floatsidf                                       c:/program files (x86)/codesourcery/sourcery g++ lite/bin/../lib/gcc/arm-none-eabi/4.4.1/thumb2\libgcc.a(_arm_addsubdf3.o)
__floatsisf                                       c:/program files (x86)/codesourcery/sourcery g++ lite/bin/../lib/gcc/arm-none-eabi/4.4.1/thumb2\libgcc.a(_arm_addsubsf3.o)
__floatundidf                                     c:/program files (x86)/codesourcery/sourcery g++ lite/bin/../lib/gcc/arm-none-eabi/4.4.1/thumb2\libgcc.a(_arm_addsubdf3.o)
__floatundisf                                     c:/program files (x86)/codesourcery/sourcery g++ lite/bin/../lib/gcc/arm-none-eabi/4.4.1/thumb2\libgcc.a(_arm_addsubsf3.o)
__floatunsidf                                     c:/program files (x86)/codesourcery/sourcery g++ lite/bin/../lib/gcc/arm-none-eabi/4.4.1/thumb2\libgcc.a(_arm_addsubdf3.o)
__floatunsisf                                     c:/program files (x86)/codesourcery/sourcery g++ lite/bin/../lib/gcc/arm-none-eabi/4.4.1/thumb2\libgcc.a(_arm_addsubsf3.o)
__fp_lock_all                                     c:/program files (x86)/codesourcery/sourcery g++ lite/bin/../lib/gcc/arm-none-eabi/4.4.1/../../../../arm-none-eabi/lib/thumb2\libc.a(lib_a-findfp.o)
__fp_unlock_all                                   c:/program files (x86)/codesourcery/sourcery g++ lite/bin/../lib/gcc/arm-none-eabi/4.4.1/../../../../arm-none-eabi/lib/thumb2\libc.a(lib_a-findfp.o)
__gedf2                                           c:/program files (x86)/codesourcery/sourcery g++ lite/bin/../lib/gcc/arm-none-eabi/4.4.1/thumb2\libgcc.a(_arm_cmpdf2.o)
__gesf2                                           c:/program files (x86)/codesourcery/sourcery g++ lite/bin/../lib/gcc/arm-none-eabi/4.4.1/thumb2\libgcc.a(_arm_cmpsf2.o)
__get_BASEPRI                                     ..//common/Core/CM3/core_cm3.o
__get_CONTROL                                     ..//common/Core/CM3/core_cm3.o
__get_FAULTMASK                                   ..//common/Core/CM3/core_cm3.o
__get_MSP                                         ..//common/Core/CM3/core_cm3.o
                                                  ..//Common/src/syscalls.o
__get_PRIMASK                                     ..//common/Core/CM3/core_cm3.o
__get_PSP                                         ..//common/Core/CM3/core_cm3.o
__gnu_ldivmod_helper                              c:/program files (x86)/codesourcery/sourcery g++ lite/bin/../lib/gcc/arm-none-eabi/4.4.1/thumb2\libgcc.a(bpabi.o)
__gnu_uldivmod_helper                             c:/program files (x86)/codesourcery/sourcery g++ lite/bin/../lib/gcc/arm-none-eabi/4.4.1/thumb2\libgcc.a(bpabi.o)
                                                  c:/program files (x86)/codesourcery/sourcery g++ lite/bin/../lib/gcc/arm-none-eabi/4.4.1/thumb2\libgcc.a(_aeabi_uldivmod.o)
__gtdf2                                           c:/program files (x86)/codesourcery/sourcery g++ lite/bin/../lib/gcc/arm-none-eabi/4.4.1/thumb2\libgcc.a(_arm_cmpdf2.o)
__gtsf2                                           c:/program files (x86)/codesourcery/sourcery g++ lite/bin/../lib/gcc/arm-none-eabi/4.4.1/thumb2\libgcc.a(_arm_cmpsf2.o)
__hi0bits                                         c:/program files (x86)/codesourcery/sourcery g++ lite/bin/../lib/gcc/arm-none-eabi/4.4.1/../../../../arm-none-eabi/lib/thumb2\libc.a(lib_a-mprec.o)
                                                  c:/program files (x86)/codesourcery/sourcery g++ lite/bin/../lib/gcc/arm-none-eabi/4.4.1/../../../../arm-none-eabi/lib/thumb2\libc.a(lib_a-dtoa.o)
__i2b                                             c:/program files (x86)/codesourcery/sourcery g++ lite/bin/../lib/gcc/arm-none-eabi/4.4.1/../../../../arm-none-eabi/lib/thumb2\libc.a(lib_a-mprec.o)
                                                  c:/program files (x86)/codesourcery/sourcery g++ lite/bin/../lib/gcc/arm-none-eabi/4.4.1/../../../../arm-none-eabi/lib/thumb2\libc.a(lib_a-dtoa.o)
__init_array_end                                  c:/program files (x86)/codesourcery/sourcery g++ lite/bin/../lib/gcc/arm-none-eabi/4.4.1/../../../../arm-none-eabi/lib/thumb2\libc.a(lib_a-init.o)
__init_array_start                                c:/program files (x86)/codesourcery/sourcery g++ lite/bin/../lib/gcc/arm-none-eabi/4.4.1/../../../../arm-none-eabi/lib/thumb2\libc.a(lib_a-init.o)
__isinfd                                          c:/program files (x86)/codesourcery/sourcery g++ lite/bin/../lib/gcc/arm-none-eabi/4.4.1/../../../../arm-none-eabi/lib/thumb2\libc.a(lib_a-s_isinfd.o)
                                                  c:/program files (x86)/codesourcery/sourcery g++ lite/bin/../lib/gcc/arm-none-eabi/4.4.1/../../../../arm-none-eabi/lib/thumb2\libc.a(lib_a-svfprintf.o)
__isnand                                          c:/program files (x86)/codesourcery/sourcery g++ lite/bin/../lib/gcc/arm-none-eabi/4.4.1/../../../../arm-none-eabi/lib/thumb2\libc.a(lib_a-s_isnand.o)
                                                  c:/program files (x86)/codesourcery/sourcery g++ lite/bin/../lib/gcc/arm-none-eabi/4.4.1/../../../../arm-none-eabi/lib/thumb2\libc.a(lib_a-svfprintf.o)
__lc_ctype                                        c:/program files (x86)/codesourcery/sourcery g++ lite/bin/../lib/gcc/arm-none-eabi/4.4.1/../../../../arm-none-eabi/lib/thumb2\libc.a(lib_a-locale.o)
__ledf2                                           c:/program files (x86)/codesourcery/sourcery g++ lite/bin/../lib/gcc/arm-none-eabi/4.4.1/thumb2\libgcc.a(_arm_cmpdf2.o)
__lesf2                                           c:/program files (x86)/codesourcery/sourcery g++ lite/bin/../lib/gcc/arm-none-eabi/4.4.1/thumb2\libgcc.a(_arm_cmpsf2.o)
__libc_init_array                                 c:/program files (x86)/codesourcery/sourcery g++ lite/bin/../lib/gcc/arm-none-eabi/4.4.1/../../../../arm-none-eabi/lib/thumb2\libc.a(lib_a-init.o)
                                                  c:/program files (x86)/codesourcery/sourcery g++ lite/bin/../lib/gcc/arm-none-eabi/4.4.1/../../../../arm-none-eabi/lib/thumb2\libcs3.a(start_c.o)
__lo0bits                                         c:/program files (x86)/codesourcery/sourcery g++ lite/bin/../lib/gcc/arm-none-eabi/4.4.1/../../../../arm-none-eabi/lib/thumb2\libc.a(lib_a-mprec.o)
__locale_charset                                  c:/program files (x86)/codesourcery/sourcery g++ lite/bin/../lib/gcc/arm-none-eabi/4.4.1/../../../../arm-none-eabi/lib/thumb2\libc.a(lib_a-locale.o)
__lshift                                          c:/program files (x86)/codesourcery/sourcery g++ lite/bin/../lib/gcc/arm-none-eabi/4.4.1/../../../../arm-none-eabi/lib/thumb2\libc.a(lib_a-mprec.o)
                                                  c:/program files (x86)/codesourcery/sourcery g++ lite/bin/../lib/gcc/arm-none-eabi/4.4.1/../../../../arm-none-eabi/lib/thumb2\libc.a(lib_a-dtoa.o)
__ltdf2                                           c:/program files (x86)/codesourcery/sourcery g++ lite/bin/../lib/gcc/arm-none-eabi/4.4.1/thumb2\libgcc.a(_arm_cmpdf2.o)
__ltsf2                                           c:/program files (x86)/codesourcery/sourcery g++ lite/bin/../lib/gcc/arm-none-eabi/4.4.1/thumb2\libgcc.a(_arm_cmpsf2.o)
__malloc_av_                                      c:/program files (x86)/codesourcery/sourcery g++ lite/bin/../lib/gcc/arm-none-eabi/4.4.1/../../../../arm-none-eabi/lib/thumb2\libc.a(lib_a-mallocr.o)
                                                  c:/program files (x86)/codesourcery/sourcery g++ lite/bin/../lib/gcc/arm-none-eabi/4.4.1/../../../../arm-none-eabi/lib/thumb2\libc.a(lib_a-freer.o)
                                                  c:/program files (x86)/codesourcery/sourcery g++ lite/bin/../lib/gcc/arm-none-eabi/4.4.1/../../../../arm-none-eabi/lib/thumb2\libc.a(lib_a-reallocr.o)
__malloc_current_mallinfo                         c:/program files (x86)/codesourcery/sourcery g++ lite/bin/../lib/gcc/arm-none-eabi/4.4.1/../../../../arm-none-eabi/lib/thumb2\libc.a(lib_a-mallocr.o)
                                                  c:/program files (x86)/codesourcery/sourcery g++ lite/bin/../lib/gcc/arm-none-eabi/4.4.1/../../../../arm-none-eabi/lib/thumb2\libc.a(lib_a-freer.o)
__malloc_lock                                     c:/program files (x86)/codesourcery/sourcery g++ lite/bin/../lib/gcc/arm-none-eabi/4.4.1/../../../../arm-none-eabi/lib/thumb2\libc.a(lib_a-mlock.o)
                                                  c:/program files (x86)/codesourcery/sourcery g++ lite/bin/../lib/gcc/arm-none-eabi/4.4.1/../../../../arm-none-eabi/lib/thumb2\libc.a(lib_a-freer.o)
                                                  c:/program files (x86)/codesourcery/sourcery g++ lite/bin/../lib/gcc/arm-none-eabi/4.4.1/../../../../arm-none-eabi/lib/thumb2\libc.a(lib_a-reallocr.o)
                                                  c:/program files (x86)/codesourcery/sourcery g++ lite/bin/../lib/gcc/arm-none-eabi/4.4.1/../../../../arm-none-eabi/lib/thumb2\libc.a(lib_a-mallocr.o)
__malloc_max_sbrked_mem                           c:/program files (x86)/codesourcery/sourcery g++ lite/bin/../lib/gcc/arm-none-eabi/4.4.1/../../../../arm-none-eabi/lib/thumb2\libc.a(lib_a-mallocr.o)
__malloc_max_total_mem                            c:/program files (x86)/codesourcery/sourcery g++ lite/bin/../lib/gcc/arm-none-eabi/4.4.1/../../../../arm-none-eabi/lib/thumb2\libc.a(lib_a-mallocr.o)
__malloc_sbrk_base                                c:/program files (x86)/codesourcery/sourcery g++ lite/bin/../lib/gcc/arm-none-eabi/4.4.1/../../../../arm-none-eabi/lib/thumb2\libc.a(lib_a-mallocr.o)
                                                  c:/program files (x86)/codesourcery/sourcery g++ lite/bin/../lib/gcc/arm-none-eabi/4.4.1/../../../../arm-none-eabi/lib/thumb2\libc.a(lib_a-freer.o)
__malloc_top_pad                                  c:/program files (x86)/codesourcery/sourcery g++ lite/bin/../lib/gcc/arm-none-eabi/4.4.1/../../../../arm-none-eabi/lib/thumb2\libc.a(lib_a-mallocr.o)
                                                  c:/program files (x86)/codesourcery/sourcery g++ lite/bin/../lib/gcc/arm-none-eabi/4.4.1/../../../../arm-none-eabi/lib/thumb2\libc.a(lib_a-freer.o)
__malloc_trim_threshold                           c:/program files (x86)/codesourcery/sourcery g++ lite/bin/../lib/gcc/arm-none-eabi/4.4.1/../../../../arm-none-eabi/lib/thumb2\libc.a(lib_a-mallocr.o)
                                                  c:/program files (x86)/codesourcery/sourcery g++ lite/bin/../lib/gcc/arm-none-eabi/4.4.1/../../../../arm-none-eabi/lib/thumb2\libc.a(lib_a-freer.o)
__malloc_unlock                                   c:/program files (x86)/codesourcery/sourcery g++ lite/bin/../lib/gcc/arm-none-eabi/4.4.1/../../../../arm-none-eabi/lib/thumb2\libc.a(lib_a-mlock.o)
                                                  c:/program files (x86)/codesourcery/sourcery g++ lite/bin/../lib/gcc/arm-none-eabi/4.4.1/../../../../arm-none-eabi/lib/thumb2\libc.a(lib_a-freer.o)
                                                  c:/program files (x86)/codesourcery/sourcery g++ lite/bin/../lib/gcc/arm-none-eabi/4.4.1/../../../../arm-none-eabi/lib/thumb2\libc.a(lib_a-reallocr.o)
                                                  c:/program files (x86)/codesourcery/sourcery g++ lite/bin/../lib/gcc/arm-none-eabi/4.4.1/../../../../arm-none-eabi/lib/thumb2\libc.a(lib_a-mallocr.o)
__mb_cur_max                                      c:/program files (x86)/codesourcery/sourcery g++ lite/bin/../lib/gcc/arm-none-eabi/4.4.1/../../../../arm-none-eabi/lib/thumb2\libc.a(lib_a-locale.o)
__mcmp                                            c:/program files (x86)/codesourcery/sourcery g++ lite/bin/../lib/gcc/arm-none-eabi/4.4.1/../../../../arm-none-eabi/lib/thumb2\libc.a(lib_a-mprec.o)
                                                  c:/program files (x86)/codesourcery/sourcery g++ lite/bin/../lib/gcc/arm-none-eabi/4.4.1/../../../../arm-none-eabi/lib/thumb2\libc.a(lib_a-dtoa.o)
__mdiff                                           c:/program files (x86)/codesourcery/sourcery g++ lite/bin/../lib/gcc/arm-none-eabi/4.4.1/../../../../arm-none-eabi/lib/thumb2\libc.a(lib_a-mprec.o)
                                                  c:/program files (x86)/codesourcery/sourcery g++ lite/bin/../lib/gcc/arm-none-eabi/4.4.1/../../../../arm-none-eabi/lib/thumb2\libc.a(lib_a-dtoa.o)
__mlocale_changed                                 c:/program files (x86)/codesourcery/sourcery g++ lite/bin/../lib/gcc/arm-none-eabi/4.4.1/../../../../arm-none-eabi/lib/thumb2\libc.a(lib_a-locale.o)
__mprec_bigtens                                   c:/program files (x86)/codesourcery/sourcery g++ lite/bin/../lib/gcc/arm-none-eabi/4.4.1/../../../../arm-none-eabi/lib/thumb2\libc.a(lib_a-mprec.o)
                                                  c:/program files (x86)/codesourcery/sourcery g++ lite/bin/../lib/gcc/arm-none-eabi/4.4.1/../../../../arm-none-eabi/lib/thumb2\libc.a(lib_a-dtoa.o)
__mprec_tens                                      c:/program files (x86)/codesourcery/sourcery g++ lite/bin/../lib/gcc/arm-none-eabi/4.4.1/../../../../arm-none-eabi/lib/thumb2\libc.a(lib_a-mprec.o)
                                                  c:/program files (x86)/codesourcery/sourcery g++ lite/bin/../lib/gcc/arm-none-eabi/4.4.1/../../../../arm-none-eabi/lib/thumb2\libc.a(lib_a-dtoa.o)
__mprec_tinytens                                  c:/program files (x86)/codesourcery/sourcery g++ lite/bin/../lib/gcc/arm-none-eabi/4.4.1/../../../../arm-none-eabi/lib/thumb2\libc.a(lib_a-mprec.o)
__muldf3                                          c:/program files (x86)/codesourcery/sourcery g++ lite/bin/../lib/gcc/arm-none-eabi/4.4.1/thumb2\libgcc.a(_arm_muldivdf3.o)
__mulsf3                                          c:/program files (x86)/codesourcery/sourcery g++ lite/bin/../lib/gcc/arm-none-eabi/4.4.1/thumb2\libgcc.a(_arm_muldivsf3.o)
__multadd                                         c:/program files (x86)/codesourcery/sourcery g++ lite/bin/../lib/gcc/arm-none-eabi/4.4.1/../../../../arm-none-eabi/lib/thumb2\libc.a(lib_a-mprec.o)
                                                  c:/program files (x86)/codesourcery/sourcery g++ lite/bin/../lib/gcc/arm-none-eabi/4.4.1/../../../../arm-none-eabi/lib/thumb2\libc.a(lib_a-dtoa.o)
__multiply                                        c:/program files (x86)/codesourcery/sourcery g++ lite/bin/../lib/gcc/arm-none-eabi/4.4.1/../../../../arm-none-eabi/lib/thumb2\libc.a(lib_a-mprec.o)
                                                  c:/program files (x86)/codesourcery/sourcery g++ lite/bin/../lib/gcc/arm-none-eabi/4.4.1/../../../../arm-none-eabi/lib/thumb2\libc.a(lib_a-dtoa.o)
__nedf2                                           c:/program files (x86)/codesourcery/sourcery g++ lite/bin/../lib/gcc/arm-none-eabi/4.4.1/thumb2\libgcc.a(_arm_cmpdf2.o)
__nesf2                                           c:/program files (x86)/codesourcery/sourcery g++ lite/bin/../lib/gcc/arm-none-eabi/4.4.1/thumb2\libgcc.a(_arm_cmpsf2.o)
__nlocale_changed                                 c:/program files (x86)/codesourcery/sourcery g++ lite/bin/../lib/gcc/arm-none-eabi/4.4.1/../../../../arm-none-eabi/lib/thumb2\libc.a(lib_a-locale.o)
__pow5mult                                        c:/program files (x86)/codesourcery/sourcery g++ lite/bin/../lib/gcc/arm-none-eabi/4.4.1/../../../../arm-none-eabi/lib/thumb2\libc.a(lib_a-mprec.o)
                                                  c:/program files (x86)/codesourcery/sourcery g++ lite/bin/../lib/gcc/arm-none-eabi/4.4.1/../../../../arm-none-eabi/lib/thumb2\libc.a(lib_a-dtoa.o)
__preinit_array_end                               c:/program files (x86)/codesourcery/sourcery g++ lite/bin/../lib/gcc/arm-none-eabi/4.4.1/../../../../arm-none-eabi/lib/thumb2\libc.a(lib_a-init.o)
__preinit_array_start                             c:/program files (x86)/codesourcery/sourcery g++ lite/bin/../lib/gcc/arm-none-eabi/4.4.1/../../../../arm-none-eabi/lib/thumb2\libc.a(lib_a-init.o)
__ratio                                           c:/program files (x86)/codesourcery/sourcery g++ lite/bin/../lib/gcc/arm-none-eabi/4.4.1/../../../../arm-none-eabi/lib/thumb2\libc.a(lib_a-mprec.o)
__s2b                                             c:/program files (x86)/codesourcery/sourcery g++ lite/bin/../lib/gcc/arm-none-eabi/4.4.1/../../../../arm-none-eabi/lib/thumb2\libc.a(lib_a-mprec.o)
__sclose                                          c:/program files (x86)/codesourcery/sourcery g++ lite/bin/../lib/gcc/arm-none-eabi/4.4.1/../../../../arm-none-eabi/lib/thumb2\libc.a(lib_a-stdio.o)
                                                  c:/program files (x86)/codesourcery/sourcery g++ lite/bin/../lib/gcc/arm-none-eabi/4.4.1/../../../../arm-none-eabi/lib/thumb2\libc.a(lib_a-findfp.o)
__set_BASEPRI                                     ..//common/Core/CM3/core_cm3.o
__set_CONTROL                                     ..//common/Core/CM3/core_cm3.o
__set_FAULTMASK                                   ..//common/Core/CM3/core_cm3.o
__set_MSP                                         ..//common/Core/CM3/core_cm3.o
__set_PRIMASK                                     ..//common/Core/CM3/core_cm3.o
__set_PSP                                         ..//common/Core/CM3/core_cm3.o
__sf_fake_stderr                                  c:/program files (x86)/codesourcery/sourcery g++ lite/bin/../lib/gcc/arm-none-eabi/4.4.1/../../../../arm-none-eabi/lib/thumb2\libc.a(lib_a-findfp.o)
                                                  c:/program files (x86)/codesourcery/sourcery g++ lite/bin/../lib/gcc/arm-none-eabi/4.4.1/../../../../arm-none-eabi/lib/thumb2\libc.a(lib_a-fflush.o)
                                                  c:/program files (x86)/codesourcery/sourcery g++ lite/bin/../lib/gcc/arm-none-eabi/4.4.1/../../../../arm-none-eabi/lib/thumb2\libc.a(lib_a-fclose.o)
                                                  c:/program files (x86)/codesourcery/sourcery g++ lite/bin/../lib/gcc/arm-none-eabi/4.4.1/../../../../arm-none-eabi/lib/thumb2\libc.a(lib_a-wsetup.o)
                                                  c:/program files (x86)/codesourcery/sourcery g++ lite/bin/../lib/gcc/arm-none-eabi/4.4.1/../../../../arm-none-eabi/lib/thumb2\libc.a(lib_a-impure.o)
__sf_fake_stdin                                   c:/program files (x86)/codesourcery/sourcery g++ lite/bin/../lib/gcc/arm-none-eabi/4.4.1/../../../../arm-none-eabi/lib/thumb2\libc.a(lib_a-findfp.o)
                                                  c:/program files (x86)/codesourcery/sourcery g++ lite/bin/../lib/gcc/arm-none-eabi/4.4.1/../../../../arm-none-eabi/lib/thumb2\libc.a(lib_a-fflush.o)
                                                  c:/program files (x86)/codesourcery/sourcery g++ lite/bin/../lib/gcc/arm-none-eabi/4.4.1/../../../../arm-none-eabi/lib/thumb2\libc.a(lib_a-fclose.o)
                                                  c:/program files (x86)/codesourcery/sourcery g++ lite/bin/../lib/gcc/arm-none-eabi/4.4.1/../../../../arm-none-eabi/lib/thumb2\libc.a(lib_a-wsetup.o)
                                                  c:/program files (x86)/codesourcery/sourcery g++ lite/bin/../lib/gcc/arm-none-eabi/4.4.1/../../../../arm-none-eabi/lib/thumb2\libc.a(lib_a-impure.o)
__sf_fake_stdout                                  c:/program files (x86)/codesourcery/sourcery g++ lite/bin/../lib/gcc/arm-none-eabi/4.4.1/../../../../arm-none-eabi/lib/thumb2\libc.a(lib_a-findfp.o)
                                                  c:/program files (x86)/codesourcery/sourcery g++ lite/bin/../lib/gcc/arm-none-eabi/4.4.1/../../../../arm-none-eabi/lib/thumb2\libc.a(lib_a-fflush.o)
                                                  c:/program files (x86)/codesourcery/sourcery g++ lite/bin/../lib/gcc/arm-none-eabi/4.4.1/../../../../arm-none-eabi/lib/thumb2\libc.a(lib_a-fclose.o)
                                                  c:/program files (x86)/codesourcery/sourcery g++ lite/bin/../lib/gcc/arm-none-eabi/4.4.1/../../../../arm-none-eabi/lib/thumb2\libc.a(lib_a-wsetup.o)
                                                  c:/program files (x86)/codesourcery/sourcery g++ lite/bin/../lib/gcc/arm-none-eabi/4.4.1/../../../../arm-none-eabi/lib/thumb2\libc.a(lib_a-impure.o)
__sfmoreglue                                      c:/program files (x86)/codesourcery/sourcery g++ lite/bin/../lib/gcc/arm-none-eabi/4.4.1/../../../../arm-none-eabi/lib/thumb2\libc.a(lib_a-findfp.o)
__sfp                                             c:/program files (x86)/codesourcery/sourcery g++ lite/bin/../lib/gcc/arm-none-eabi/4.4.1/../../../../arm-none-eabi/lib/thumb2\libc.a(lib_a-findfp.o)
__sfp_lock_acquire                                c:/program files (x86)/codesourcery/sourcery g++ lite/bin/../lib/gcc/arm-none-eabi/4.4.1/../../../../arm-none-eabi/lib/thumb2\libc.a(lib_a-findfp.o)
                                                  c:/program files (x86)/codesourcery/sourcery g++ lite/bin/../lib/gcc/arm-none-eabi/4.4.1/../../../../arm-none-eabi/lib/thumb2\libc.a(lib_a-fclose.o)
                                                  c:/program files (x86)/codesourcery/sourcery g++ lite/bin/../lib/gcc/arm-none-eabi/4.4.1/../../../../arm-none-eabi/lib/thumb2\libc.a(lib_a-fwalk.o)
__sfp_lock_release                                c:/program files (x86)/codesourcery/sourcery g++ lite/bin/../lib/gcc/arm-none-eabi/4.4.1/../../../../arm-none-eabi/lib/thumb2\libc.a(lib_a-findfp.o)
                                                  c:/program files (x86)/codesourcery/sourcery g++ lite/bin/../lib/gcc/arm-none-eabi/4.4.1/../../../../arm-none-eabi/lib/thumb2\libc.a(lib_a-fclose.o)
                                                  c:/program files (x86)/codesourcery/sourcery g++ lite/bin/../lib/gcc/arm-none-eabi/4.4.1/../../../../arm-none-eabi/lib/thumb2\libc.a(lib_a-fwalk.o)
__sfvwrite_r                                      c:/program files (x86)/codesourcery/sourcery g++ lite/bin/../lib/gcc/arm-none-eabi/4.4.1/../../../../arm-none-eabi/lib/thumb2\libc.a(lib_a-fvwrite.o)
                                                  c:/program files (x86)/codesourcery/sourcery g++ lite/bin/../lib/gcc/arm-none-eabi/4.4.1/../../../../arm-none-eabi/lib/thumb2\libc.a(lib_a-puts.o)
__sigtramp                                        c:/program files (x86)/codesourcery/sourcery g++ lite/bin/../lib/gcc/arm-none-eabi/4.4.1/../../../../arm-none-eabi/lib/thumb2\libc.a(lib_a-signal.o)
__sigtramp_r                                      c:/program files (x86)/codesourcery/sourcery g++ lite/bin/../lib/gcc/arm-none-eabi/4.4.1/../../../../arm-none-eabi/lib/thumb2\libc.a(lib_a-signal.o)
__sinit                                           c:/program files (x86)/codesourcery/sourcery g++ lite/bin/../lib/gcc/arm-none-eabi/4.4.1/../../../../arm-none-eabi/lib/thumb2\libc.a(lib_a-findfp.o)
                                                  c:/program files (x86)/codesourcery/sourcery g++ lite/bin/../lib/gcc/arm-none-eabi/4.4.1/../../../../arm-none-eabi/lib/thumb2\libc.a(lib_a-fflush.o)
                                                  c:/program files (x86)/codesourcery/sourcery g++ lite/bin/../lib/gcc/arm-none-eabi/4.4.1/../../../../arm-none-eabi/lib/thumb2\libc.a(lib_a-fclose.o)
                                                  c:/program files (x86)/codesourcery/sourcery g++ lite/bin/../lib/gcc/arm-none-eabi/4.4.1/../../../../arm-none-eabi/lib/thumb2\libc.a(lib_a-wsetup.o)
                                                  c:/program files (x86)/codesourcery/sourcery g++ lite/bin/../lib/gcc/arm-none-eabi/4.4.1/../../../../arm-none-eabi/lib/thumb2\libc.a(lib_a-puts.o)
__sinit_lock_acquire                              c:/program files (x86)/codesourcery/sourcery g++ lite/bin/../lib/gcc/arm-none-eabi/4.4.1/../../../../arm-none-eabi/lib/thumb2\libc.a(lib_a-findfp.o)
__sinit_lock_release                              c:/program files (x86)/codesourcery/sourcery g++ lite/bin/../lib/gcc/arm-none-eabi/4.4.1/../../../../arm-none-eabi/lib/thumb2\libc.a(lib_a-findfp.o)
__smakebuf_r                                      c:/program files (x86)/codesourcery/sourcery g++ lite/bin/../lib/gcc/arm-none-eabi/4.4.1/../../../../arm-none-eabi/lib/thumb2\libc.a(lib_a-makebuf.o)
                                                  c:/program files (x86)/codesourcery/sourcery g++ lite/bin/../lib/gcc/arm-none-eabi/4.4.1/../../../../arm-none-eabi/lib/thumb2\libc.a(lib_a-wsetup.o)
__sread                                           c:/program files (x86)/codesourcery/sourcery g++ lite/bin/../lib/gcc/arm-none-eabi/4.4.1/../../../../arm-none-eabi/lib/thumb2\libc.a(lib_a-stdio.o)
                                                  c:/program files (x86)/codesourcery/sourcery g++ lite/bin/../lib/gcc/arm-none-eabi/4.4.1/../../../../arm-none-eabi/lib/thumb2\libc.a(lib_a-findfp.o)
__sseek                                           c:/program files (x86)/codesourcery/sourcery g++ lite/bin/../lib/gcc/arm-none-eabi/4.4.1/../../../../arm-none-eabi/lib/thumb2\libc.a(lib_a-stdio.o)
                                                  c:/program files (x86)/codesourcery/sourcery g++ lite/bin/../lib/gcc/arm-none-eabi/4.4.1/../../../../arm-none-eabi/lib/thumb2\libc.a(lib_a-makebuf.o)
                                                  c:/program files (x86)/codesourcery/sourcery g++ lite/bin/../lib/gcc/arm-none-eabi/4.4.1/../../../../arm-none-eabi/lib/thumb2\libc.a(lib_a-findfp.o)
__subdf3                                          c:/program files (x86)/codesourcery/sourcery g++ lite/bin/../lib/gcc/arm-none-eabi/4.4.1/thumb2\libgcc.a(_arm_addsubdf3.o)
__subsf3                                          c:/program files (x86)/codesourcery/sourcery g++ lite/bin/../lib/gcc/arm-none-eabi/4.4.1/thumb2\libgcc.a(_arm_addsubsf3.o)
__swrite                                          c:/program files (x86)/codesourcery/sourcery g++ lite/bin/../lib/gcc/arm-none-eabi/4.4.1/../../../../arm-none-eabi/lib/thumb2\libc.a(lib_a-stdio.o)
                                                  c:/program files (x86)/codesourcery/sourcery g++ lite/bin/../lib/gcc/arm-none-eabi/4.4.1/../../../../arm-none-eabi/lib/thumb2\libc.a(lib_a-findfp.o)
__swsetup_r                                       c:/program files (x86)/codesourcery/sourcery g++ lite/bin/../lib/gcc/arm-none-eabi/4.4.1/../../../../arm-none-eabi/lib/thumb2\libc.a(lib_a-wsetup.o)
                                                  c:/program files (x86)/codesourcery/sourcery g++ lite/bin/../lib/gcc/arm-none-eabi/4.4.1/../../../../arm-none-eabi/lib/thumb2\libc.a(lib_a-fvwrite.o)
__truncdfsf2                                      c:/program files (x86)/codesourcery/sourcery g++ lite/bin/../lib/gcc/arm-none-eabi/4.4.1/thumb2\libgcc.a(_arm_truncdfsf2.o)
__udivdi3                                         c:/program files (x86)/codesourcery/sourcery g++ lite/bin/../lib/gcc/arm-none-eabi/4.4.1/thumb2\libgcc.a(_udivdi3.o)
                                                  c:/program files (x86)/codesourcery/sourcery g++ lite/bin/../lib/gcc/arm-none-eabi/4.4.1/thumb2\libgcc.a(bpabi.o)
__udivsi3                                         c:/program files (x86)/codesourcery/sourcery g++ lite/bin/../lib/gcc/arm-none-eabi/4.4.1/thumb2\libgcc.a(_udivsi3.o)
__ulp                                             c:/program files (x86)/codesourcery/sourcery g++ lite/bin/../lib/gcc/arm-none-eabi/4.4.1/../../../../arm-none-eabi/lib/thumb2\libc.a(lib_a-mprec.o)
_calloc_r                                         c:/program files (x86)/codesourcery/sourcery g++ lite/bin/../lib/gcc/arm-none-eabi/4.4.1/../../../../arm-none-eabi/lib/thumb2\libc.a(lib_a-callocr.o)
                                                  c:/program files (x86)/codesourcery/sourcery g++ lite/bin/../lib/gcc/arm-none-eabi/4.4.1/../../../../arm-none-eabi/lib/thumb2\libc.a(lib_a-mprec.o)
_cleanup                                          c:/program files (x86)/codesourcery/sourcery g++ lite/bin/../lib/gcc/arm-none-eabi/4.4.1/../../../../arm-none-eabi/lib/thumb2\libc.a(lib_a-findfp.o)
_cleanup_r                                        c:/program files (x86)/codesourcery/sourcery g++ lite/bin/../lib/gcc/arm-none-eabi/4.4.1/../../../../arm-none-eabi/lib/thumb2\libc.a(lib_a-findfp.o)
                                                  c:/program files (x86)/codesourcery/sourcery g++ lite/bin/../lib/gcc/arm-none-eabi/4.4.1/../../../../arm-none-eabi/lib/thumb2\libc.a(lib_a-makebuf.o)
_close                                            ..//Common/src/syscalls.o
                                                  c:/program files (x86)/codesourcery/sourcery g++ lite/bin/../lib/gcc/arm-none-eabi/4.4.1/../../../../arm-none-eabi/lib/thumb2\libc.a(lib_a-closer.o)
_close_r                                          c:/program files (x86)/codesourcery/sourcery g++ lite/bin/../lib/gcc/arm-none-eabi/4.4.1/../../../../arm-none-eabi/lib/thumb2\libc.a(lib_a-closer.o)
                                                  c:/program files (x86)/codesourcery/sourcery g++ lite/bin/../lib/gcc/arm-none-eabi/4.4.1/../../../../arm-none-eabi/lib/thumb2\libc.a(lib_a-stdio.o)
_db_char                                          ..//common/src/debug_frmwrk.o
_db_dec                                           ..//common/src/debug_frmwrk.o
_db_dec_16                                        ..//common/src/debug_frmwrk.o
_db_dec_32                                        ..//common/src/debug_frmwrk.o
_db_get_char                                      ..//common/src/debug_frmwrk.o
_db_hex                                           ..//common/src/debug_frmwrk.o
_db_hex_16                                        ..//common/src/debug_frmwrk.o
_db_hex_32                                        ..//common/src/debug_frmwrk.o
_db_msg                                           ..//common/src/debug_frmwrk.o
_db_msg_                                          ..//common/src/debug_frmwrk.o
_dcvt                                             c:/program files (x86)/codesourcery/sourcery g++ lite/bin/../lib/gcc/arm-none-eabi/4.4.1/../../../../arm-none-eabi/lib/thumb2\libc.a(lib_a-ecvtbuf.o)
_delay_ms                                         ..//common/src/delay.o
                                                  ..//PHY/config_data.o
_delay_s                                          ..//common/src/delay.o
_delay_us                                         ..//common/src/delay.o
_dtoa_r                                           c:/program files (x86)/codesourcery/sourcery g++ lite/bin/../lib/gcc/arm-none-eabi/4.4.1/../../../../arm-none-eabi/lib/thumb2\libc.a(lib_a-dtoa.o)
                                                  c:/program files (x86)/codesourcery/sourcery g++ lite/bin/../lib/gcc/arm-none-eabi/4.4.1/../../../../arm-none-eabi/lib/thumb2\libc.a(lib_a-svfprintf.o)
                                                  c:/program files (x86)/codesourcery/sourcery g++ lite/bin/../lib/gcc/arm-none-eabi/4.4.1/../../../../arm-none-eabi/lib/thumb2\libc.a(lib_a-ecvtbuf.o)
_end                                              ..//Common/src/syscalls.o
_exit                                             ..//Common/src/syscalls.o
                                                  c:/program files (x86)/codesourcery/sourcery g++ lite/bin/../lib/gcc/arm-none-eabi/4.4.1/../../../../arm-none-eabi/lib/thumb2\libc.a(lib_a-abort.o)
_fclose_r                                         c:/program files (x86)/codesourcery/sourcery g++ lite/bin/../lib/gcc/arm-none-eabi/4.4.1/../../../../arm-none-eabi/lib/thumb2\libc.a(lib_a-fclose.o)
_fflush_r                                         c:/program files (x86)/codesourcery/sourcery g++ lite/bin/../lib/gcc/arm-none-eabi/4.4.1/../../../../arm-none-eabi/lib/thumb2\libc.a(lib_a-fflush.o)
                                                  c:/program files (x86)/codesourcery/sourcery g++ lite/bin/../lib/gcc/arm-none-eabi/4.4.1/../../../../arm-none-eabi/lib/thumb2\libc.a(lib_a-fclose.o)
                                                  c:/program files (x86)/codesourcery/sourcery g++ lite/bin/../lib/gcc/arm-none-eabi/4.4.1/../../../../arm-none-eabi/lib/thumb2\libc.a(lib_a-fvwrite.o)
_fini                                             c:/program files (x86)/codesourcery/sourcery g++ lite/bin/../lib/gcc/arm-none-eabi/4.4.1/thumb2/crti.o
_free_r                                           c:/program files (x86)/codesourcery/sourcery g++ lite/bin/../lib/gcc/arm-none-eabi/4.4.1/../../../../arm-none-eabi/lib/thumb2\libc.a(lib_a-freer.o)
                                                  c:/program files (x86)/codesourcery/sourcery g++ lite/bin/../lib/gcc/arm-none-eabi/4.4.1/../../../../arm-none-eabi/lib/thumb2\libc.a(lib_a-fflush.o)
                                                  c:/program files (x86)/codesourcery/sourcery g++ lite/bin/../lib/gcc/arm-none-eabi/4.4.1/../../../../arm-none-eabi/lib/thumb2\libc.a(lib_a-fclose.o)
                                                  c:/program files (x86)/codesourcery/sourcery g++ lite/bin/../lib/gcc/arm-none-eabi/4.4.1/../../../../arm-none-eabi/lib/thumb2\libc.a(lib_a-wsetup.o)
                                                  c:/program files (x86)/codesourcery/sourcery g++ lite/bin/../lib/gcc/arm-none-eabi/4.4.1/../../../../arm-none-eabi/lib/thumb2\libc.a(lib_a-svfprintf.o)
                                                  c:/program files (x86)/codesourcery/sourcery g++ lite/bin/../lib/gcc/arm-none-eabi/4.4.1/../../../../arm-none-eabi/lib/thumb2\libc.a(lib_a-fvwrite.o)
                                                  c:/program files (x86)/codesourcery/sourcery g++ lite/bin/../lib/gcc/arm-none-eabi/4.4.1/../../../../arm-none-eabi/lib/thumb2\libc.a(lib_a-reent.o)
                                                  c:/program files (x86)/codesourcery/sourcery g++ lite/bin/../lib/gcc/arm-none-eabi/4.4.1/../../../../arm-none-eabi/lib/thumb2\libc.a(lib_a-reallocr.o)
                                                  c:/program files (x86)/codesourcery/sourcery g++ lite/bin/../lib/gcc/arm-none-eabi/4.4.1/../../../../arm-none-eabi/lib/thumb2\libc.a(lib_a-mallocr.o)
                                                  c:/program files (x86)/codesourcery/sourcery g++ lite/bin/../lib/gcc/arm-none-eabi/4.4.1/../../../../arm-none-eabi/lib/thumb2\libc.a(lib_a-malloc.o)
_fstat                                            ..//Common/src/syscalls.o
                                                  c:/program files (x86)/codesourcery/sourcery g++ lite/bin/../lib/gcc/arm-none-eabi/4.4.1/../../../../arm-none-eabi/lib/thumb2\libc.a(lib_a-fstatr.o)
_fstat_r                                          c:/program files (x86)/codesourcery/sourcery g++ lite/bin/../lib/gcc/arm-none-eabi/4.4.1/../../../../arm-none-eabi/lib/thumb2\libc.a(lib_a-fstatr.o)
                                                  c:/program files (x86)/codesourcery/sourcery g++ lite/bin/../lib/gcc/arm-none-eabi/4.4.1/../../../../arm-none-eabi/lib/thumb2\libc.a(lib_a-makebuf.o)
_fwalk                                            c:/program files (x86)/codesourcery/sourcery g++ lite/bin/../lib/gcc/arm-none-eabi/4.4.1/../../../../arm-none-eabi/lib/thumb2\libc.a(lib_a-fwalk.o)
                                                  c:/program files (x86)/codesourcery/sourcery g++ lite/bin/../lib/gcc/arm-none-eabi/4.4.1/../../../../arm-none-eabi/lib/thumb2\libc.a(lib_a-findfp.o)
_fwalk_reent                                      c:/program files (x86)/codesourcery/sourcery g++ lite/bin/../lib/gcc/arm-none-eabi/4.4.1/../../../../arm-none-eabi/lib/thumb2\libc.a(lib_a-fwalk.o)
                                                  c:/program files (x86)/codesourcery/sourcery g++ lite/bin/../lib/gcc/arm-none-eabi/4.4.1/../../../../arm-none-eabi/lib/thumb2\libc.a(lib_a-fflush.o)
_gcvt                                             c:/program files (x86)/codesourcery/sourcery g++ lite/bin/../lib/gcc/arm-none-eabi/4.4.1/../../../../arm-none-eabi/lib/thumb2\libc.a(lib_a-ecvtbuf.o)
_getpid                                           ..//Common/src/syscalls.o
                                                  c:/program files (x86)/codesourcery/sourcery g++ lite/bin/../lib/gcc/arm-none-eabi/4.4.1/../../../../arm-none-eabi/lib/thumb2\libc.a(lib_a-signalr.o)
_getpid_r                                         c:/program files (x86)/codesourcery/sourcery g++ lite/bin/../lib/gcc/arm-none-eabi/4.4.1/../../../../arm-none-eabi/lib/thumb2\libc.a(lib_a-signalr.o)
                                                  c:/program files (x86)/codesourcery/sourcery g++ lite/bin/../lib/gcc/arm-none-eabi/4.4.1/../../../../arm-none-eabi/lib/thumb2\libc.a(lib_a-signal.o)
_global_impure_ptr                                c:/program files (x86)/codesourcery/sourcery g++ lite/bin/../lib/gcc/arm-none-eabi/4.4.1/../../../../arm-none-eabi/lib/thumb2\libc.a(lib_a-impure.o)
                                                  c:/program files (x86)/codesourcery/sourcery g++ lite/bin/../lib/gcc/arm-none-eabi/4.4.1/../../../../arm-none-eabi/lib/thumb2\libc.a(lib_a-fflush.o)
                                                  c:/program files (x86)/codesourcery/sourcery g++ lite/bin/../lib/gcc/arm-none-eabi/4.4.1/../../../../arm-none-eabi/lib/thumb2\libc.a(lib_a-findfp.o)
_impure_ptr                                       c:/program files (x86)/codesourcery/sourcery g++ lite/bin/../lib/gcc/arm-none-eabi/4.4.1/../../../../arm-none-eabi/lib/thumb2\libc.a(lib_a-impure.o)
                                                  c:/program files (x86)/codesourcery/sourcery g++ lite/bin/../lib/gcc/arm-none-eabi/4.4.1/../../../../arm-none-eabi/lib/thumb2\libc.a(lib_a-locale.o)
                                                  c:/program files (x86)/codesourcery/sourcery g++ lite/bin/../lib/gcc/arm-none-eabi/4.4.1/../../../../arm-none-eabi/lib/thumb2\libc.a(lib_a-fflush.o)
                                                  c:/program files (x86)/codesourcery/sourcery g++ lite/bin/../lib/gcc/arm-none-eabi/4.4.1/../../../../arm-none-eabi/lib/thumb2\libc.a(lib_a-fclose.o)
                                                  c:/program files (x86)/codesourcery/sourcery g++ lite/bin/../lib/gcc/arm-none-eabi/4.4.1/../../../../arm-none-eabi/lib/thumb2\libc.a(lib_a-wsetup.o)
                                                  c:/program files (x86)/codesourcery/sourcery g++ lite/bin/../lib/gcc/arm-none-eabi/4.4.1/../../../../arm-none-eabi/lib/thumb2\libc.a(lib_a-findfp.o)
                                                  c:/program files (x86)/codesourcery/sourcery g++ lite/bin/../lib/gcc/arm-none-eabi/4.4.1/../../../../arm-none-eabi/lib/thumb2\libc.a(lib_a-vsprintf.o)
                                                  c:/program files (x86)/codesourcery/sourcery g++ lite/bin/../lib/gcc/arm-none-eabi/4.4.1/../../../../arm-none-eabi/lib/thumb2\libc.a(lib_a-signal.o)
                                                  c:/program files (x86)/codesourcery/sourcery g++ lite/bin/../lib/gcc/arm-none-eabi/4.4.1/../../../../arm-none-eabi/lib/thumb2\libc.a(lib_a-reent.o)
                                                  c:/program files (x86)/codesourcery/sourcery g++ lite/bin/../lib/gcc/arm-none-eabi/4.4.1/../../../../arm-none-eabi/lib/thumb2\libc.a(lib_a-puts.o)
                                                  c:/program files (x86)/codesourcery/sourcery g++ lite/bin/../lib/gcc/arm-none-eabi/4.4.1/../../../../arm-none-eabi/lib/thumb2\libc.a(lib_a-malloc.o)
                                                  c:/program files (x86)/codesourcery/sourcery g++ lite/bin/../lib/gcc/arm-none-eabi/4.4.1/../../../../arm-none-eabi/lib/thumb2\libc.a(lib_a-ecvtbuf.o)
_init                                             c:/program files (x86)/codesourcery/sourcery g++ lite/bin/../lib/gcc/arm-none-eabi/4.4.1/thumb2/crti.o
                                                  c:/program files (x86)/codesourcery/sourcery g++ lite/bin/../lib/gcc/arm-none-eabi/4.4.1/../../../../arm-none-eabi/lib/thumb2\libc.a(lib_a-init.o)
_init_signal                                      c:/program files (x86)/codesourcery/sourcery g++ lite/bin/../lib/gcc/arm-none-eabi/4.4.1/../../../../arm-none-eabi/lib/thumb2\libc.a(lib_a-signal.o)
_init_signal_r                                    c:/program files (x86)/codesourcery/sourcery g++ lite/bin/../lib/gcc/arm-none-eabi/4.4.1/../../../../arm-none-eabi/lib/thumb2\libc.a(lib_a-signal.o)
_isatty                                           ..//Common/src/syscalls.o
                                                  c:/program files (x86)/codesourcery/sourcery g++ lite/bin/../lib/gcc/arm-none-eabi/4.4.1/../../../../arm-none-eabi/lib/thumb2\libc.a(lib_a-isattyr.o)
_isatty_r                                         c:/program files (x86)/codesourcery/sourcery g++ lite/bin/../lib/gcc/arm-none-eabi/4.4.1/../../../../arm-none-eabi/lib/thumb2\libc.a(lib_a-isattyr.o)
                                                  c:/program files (x86)/codesourcery/sourcery g++ lite/bin/../lib/gcc/arm-none-eabi/4.4.1/../../../../arm-none-eabi/lib/thumb2\libc.a(lib_a-makebuf.o)
_kill                                             ..//Common/src/syscalls.o
                                                  c:/program files (x86)/codesourcery/sourcery g++ lite/bin/../lib/gcc/arm-none-eabi/4.4.1/../../../../arm-none-eabi/lib/thumb2\libc.a(lib_a-signalr.o)
_kill_r                                           c:/program files (x86)/codesourcery/sourcery g++ lite/bin/../lib/gcc/arm-none-eabi/4.4.1/../../../../arm-none-eabi/lib/thumb2\libc.a(lib_a-signalr.o)
                                                  c:/program files (x86)/codesourcery/sourcery g++ lite/bin/../lib/gcc/arm-none-eabi/4.4.1/../../../../arm-none-eabi/lib/thumb2\libc.a(lib_a-signal.o)
_localeconv_r                                     c:/program files (x86)/codesourcery/sourcery g++ lite/bin/../lib/gcc/arm-none-eabi/4.4.1/../../../../arm-none-eabi/lib/thumb2\libc.a(lib_a-locale.o)
                                                  c:/program files (x86)/codesourcery/sourcery g++ lite/bin/../lib/gcc/arm-none-eabi/4.4.1/../../../../arm-none-eabi/lib/thumb2\libc.a(lib_a-svfprintf.o)
_lseek                                            ..//Common/src/syscalls.o
                                                  c:/program files (x86)/codesourcery/sourcery g++ lite/bin/../lib/gcc/arm-none-eabi/4.4.1/../../../../arm-none-eabi/lib/thumb2\libc.a(lib_a-lseekr.o)
_lseek_r                                          c:/program files (x86)/codesourcery/sourcery g++ lite/bin/../lib/gcc/arm-none-eabi/4.4.1/../../../../arm-none-eabi/lib/thumb2\libc.a(lib_a-lseekr.o)
                                                  c:/program files (x86)/codesourcery/sourcery g++ lite/bin/../lib/gcc/arm-none-eabi/4.4.1/../../../../arm-none-eabi/lib/thumb2\libc.a(lib_a-stdio.o)
_malloc_r                                         c:/program files (x86)/codesourcery/sourcery g++ lite/bin/../lib/gcc/arm-none-eabi/4.4.1/../../../../arm-none-eabi/lib/thumb2\libc.a(lib_a-mallocr.o)
                                                  c:/program files (x86)/codesourcery/sourcery g++ lite/bin/../lib/gcc/arm-none-eabi/4.4.1/../../../../arm-none-eabi/lib/thumb2\libc.a(lib_a-makebuf.o)
                                                  c:/program files (x86)/codesourcery/sourcery g++ lite/bin/../lib/gcc/arm-none-eabi/4.4.1/../../../../arm-none-eabi/lib/thumb2\libc.a(lib_a-svfprintf.o)
                                                  c:/program files (x86)/codesourcery/sourcery g++ lite/bin/../lib/gcc/arm-none-eabi/4.4.1/../../../../arm-none-eabi/lib/thumb2\libc.a(lib_a-fvwrite.o)
                                                  c:/program files (x86)/codesourcery/sourcery g++ lite/bin/../lib/gcc/arm-none-eabi/4.4.1/../../../../arm-none-eabi/lib/thumb2\libc.a(lib_a-findfp.o)
                                                  c:/program files (x86)/codesourcery/sourcery g++ lite/bin/../lib/gcc/arm-none-eabi/4.4.1/../../../../arm-none-eabi/lib/thumb2\libc.a(lib_a-callocr.o)
                                                  c:/program files (x86)/codesourcery/sourcery g++ lite/bin/../lib/gcc/arm-none-eabi/4.4.1/../../../../arm-none-eabi/lib/thumb2\libc.a(lib_a-signal.o)
                                                  c:/program files (x86)/codesourcery/sourcery g++ lite/bin/../lib/gcc/arm-none-eabi/4.4.1/../../../../arm-none-eabi/lib/thumb2\libc.a(lib_a-reallocr.o)
                                                  c:/program files (x86)/codesourcery/sourcery g++ lite/bin/../lib/gcc/arm-none-eabi/4.4.1/../../../../arm-none-eabi/lib/thumb2\libc.a(lib_a-malloc.o)
_malloc_trim_r                                    c:/program files (x86)/codesourcery/sourcery g++ lite/bin/../lib/gcc/arm-none-eabi/4.4.1/../../../../arm-none-eabi/lib/thumb2\libc.a(lib_a-freer.o)
_mprec_log10                                      c:/program files (x86)/codesourcery/sourcery g++ lite/bin/../lib/gcc/arm-none-eabi/4.4.1/../../../../arm-none-eabi/lib/thumb2\libc.a(lib_a-mprec.o)
                                                  c:/program files (x86)/codesourcery/sourcery g++ lite/bin/../lib/gcc/arm-none-eabi/4.4.1/../../../../arm-none-eabi/lib/thumb2\libc.a(lib_a-ecvtbuf.o)
_puts_r                                           c:/program files (x86)/codesourcery/sourcery g++ lite/bin/../lib/gcc/arm-none-eabi/4.4.1/../../../../arm-none-eabi/lib/thumb2\libc.a(lib_a-puts.o)
_raise_r                                          c:/program files (x86)/codesourcery/sourcery g++ lite/bin/../lib/gcc/arm-none-eabi/4.4.1/../../../../arm-none-eabi/lib/thumb2\libc.a(lib_a-signal.o)
_read                                             ..//Common/src/syscalls.o
                                                  c:/program files (x86)/codesourcery/sourcery g++ lite/bin/../lib/gcc/arm-none-eabi/4.4.1/../../../../arm-none-eabi/lib/thumb2\libc.a(lib_a-readr.o)
_read_r                                           c:/program files (x86)/codesourcery/sourcery g++ lite/bin/../lib/gcc/arm-none-eabi/4.4.1/../../../../arm-none-eabi/lib/thumb2\libc.a(lib_a-readr.o)
                                                  c:/program files (x86)/codesourcery/sourcery g++ lite/bin/../lib/gcc/arm-none-eabi/4.4.1/../../../../arm-none-eabi/lib/thumb2\libc.a(lib_a-stdio.o)
_realloc_r                                        c:/program files (x86)/codesourcery/sourcery g++ lite/bin/../lib/gcc/arm-none-eabi/4.4.1/../../../../arm-none-eabi/lib/thumb2\libc.a(lib_a-reallocr.o)
                                                  c:/program files (x86)/codesourcery/sourcery g++ lite/bin/../lib/gcc/arm-none-eabi/4.4.1/../../../../arm-none-eabi/lib/thumb2\libc.a(lib_a-svfprintf.o)
                                                  c:/program files (x86)/codesourcery/sourcery g++ lite/bin/../lib/gcc/arm-none-eabi/4.4.1/../../../../arm-none-eabi/lib/thumb2\libc.a(lib_a-fvwrite.o)
                                                  c:/program files (x86)/codesourcery/sourcery g++ lite/bin/../lib/gcc/arm-none-eabi/4.4.1/../../../../arm-none-eabi/lib/thumb2\libc.a(lib_a-ecvtbuf.o)
_reclaim_reent                                    c:/program files (x86)/codesourcery/sourcery g++ lite/bin/../lib/gcc/arm-none-eabi/4.4.1/../../../../arm-none-eabi/lib/thumb2\libc.a(lib_a-reent.o)
_sbrk                                             ..//Common/src/syscalls.o
                                                  c:/program files (x86)/codesourcery/sourcery g++ lite/bin/../lib/gcc/arm-none-eabi/4.4.1/../../../../arm-none-eabi/lib/thumb2\libc.a(lib_a-sbrkr.o)
_sbrk_r                                           c:/program files (x86)/codesourcery/sourcery g++ lite/bin/../lib/gcc/arm-none-eabi/4.4.1/../../../../arm-none-eabi/lib/thumb2\libc.a(lib_a-sbrkr.o)
                                                  c:/program files (x86)/codesourcery/sourcery g++ lite/bin/../lib/gcc/arm-none-eabi/4.4.1/../../../../arm-none-eabi/lib/thumb2\libc.a(lib_a-freer.o)
                                                  c:/program files (x86)/codesourcery/sourcery g++ lite/bin/../lib/gcc/arm-none-eabi/4.4.1/../../../../arm-none-eabi/lib/thumb2\libc.a(lib_a-mallocr.o)
_setlocale_r                                      c:/program files (x86)/codesourcery/sourcery g++ lite/bin/../lib/gcc/arm-none-eabi/4.4.1/../../../../arm-none-eabi/lib/thumb2\libc.a(lib_a-locale.o)
_signal_r                                         c:/program files (x86)/codesourcery/sourcery g++ lite/bin/../lib/gcc/arm-none-eabi/4.4.1/../../../../arm-none-eabi/lib/thumb2\libc.a(lib_a-signal.o)
_start                                            c:/program files (x86)/codesourcery/sourcery g++ lite/bin/../lib/gcc/arm-none-eabi/4.4.1/../../../../arm-none-eabi/lib/thumb2\libcs3unhosted.a(unhosted-start.o)
                                                  ..//common/Core/CM3/startup_LPC17xx.o
_svfprintf_r                                      c:/program files (x86)/codesourcery/sourcery g++ lite/bin/../lib/gcc/arm-none-eabi/4.4.1/../../../../arm-none-eabi/lib/thumb2\libc.a(lib_a-svfprintf.o)
                                                  c:/program files (x86)/codesourcery/sourcery g++ lite/bin/../lib/gcc/arm-none-eabi/4.4.1/../../../../arm-none-eabi/lib/thumb2\libc.a(lib_a-vsprintf.o)
_vsprintf_r                                       c:/program files (x86)/codesourcery/sourcery g++ lite/bin/../lib/gcc/arm-none-eabi/4.4.1/../../../../arm-none-eabi/lib/thumb2\libc.a(lib_a-vsprintf.o)
_wrapup_reent                                     c:/program files (x86)/codesourcery/sourcery g++ lite/bin/../lib/gcc/arm-none-eabi/4.4.1/../../../../arm-none-eabi/lib/thumb2\libc.a(lib_a-reent.o)
_write                                            ..//Common/src/syscalls.o
                                                  c:/program files (x86)/codesourcery/sourcery g++ lite/bin/../lib/gcc/arm-none-eabi/4.4.1/../../../../arm-none-eabi/lib/thumb2\libc.a(lib_a-writer.o)
_write_r                                          c:/program files (x86)/codesourcery/sourcery g++ lite/bin/../lib/gcc/arm-none-eabi/4.4.1/../../../../arm-none-eabi/lib/thumb2\libc.a(lib_a-writer.o)
                                                  c:/program files (x86)/codesourcery/sourcery g++ lite/bin/../lib/gcc/arm-none-eabi/4.4.1/../../../../arm-none-eabi/lib/thumb2\libc.a(lib_a-stdio.o)
abort                                             c:/program files (x86)/codesourcery/sourcery g++ lite/bin/../lib/gcc/arm-none-eabi/4.4.1/../../../../arm-none-eabi/lib/thumb2\libc.a(lib_a-abort.o)
                                                  ..//Common/src/syscalls.o
accelscale                                        ..//utils/multi-steppers/multi-steppers.o
accum_update_a                                    ..//utils/delay_timer/delay_timer.o
accum_update_b                                    ..//utils/delay_timer/delay_timer.o
apply_modbus_values                               ..//PHY/main.o
                                                  ..//utils/modbus/SimpleModbusSlave_1769.o
baud_rate_select                                  ..//PHY/main.o
baud_value                                        ..//PHY/main.o
buff_rx0                                          ..//drivers/UART/uart.o
buff_rx2                                          ..//drivers/UART/uart.o
buff_rx3                                          ..//drivers/UART/uart.o
buff_rxUSB                                        ..//utils/usbSerial/usbSerial.o
buff_rxu                                          ..//drivers/UART/uart.o
buff_rxusb                                        ..//drivers/UART/uart.o
buff_tx2                                          ..//drivers/UART/uart.o
buff_tx3                                          ..//drivers/UART/uart.o
buff_txu                                          ..//drivers/UART/uart.o
calculateCRC(modbus_t*, unsigned char)            ..//utils/modbus/SimpleModbusSlave_1769.o
ceil                                              c:/program files (x86)/codesourcery/sourcery g++ lite/bin/../lib/gcc/arm-none-eabi/4.4.1/../../../../arm-none-eabi/lib/thumb2\libm.a(lib_a-s_ceil.o)
                                                  ..//PHY/config_data.o
checkModbusData                                   ..//utils/modbus/modbus.o
                                                  ..//utils/usbSerial/usbSerial.o
                                                  ..//drivers/UART/uart.o
check_failed                                      ..//common/src/lpc17xx_i2c.o
                                                  ..//common/src/lpc17xx_timer.o
cleanup_glue                                      c:/program files (x86)/codesourcery/sourcery g++ lite/bin/../lib/gcc/arm-none-eabi/4.4.1/../../../../arm-none-eabi/lib/thumb2\libc.a(lib_a-reent.o)
config_set_defaults(unsigned char, unsigned char) ..//PHY/config_data.o
                                                  ..//PHY/main.o
debug_frmwrk_init                                 ..//common/src/debug_frmwrk.o
                                                  ..//PHY/main.o
delay_const                                       ..//utils/delay_timer/delay_timer.o
delay_timer_32                                    ..//PHY/main.o
                                                  ..//utils/delay_timer/delay_timer.o
                                                  ..//PHY/interrupts.o
delay_value                                       ..//utils/delay_timer/delay_timer.o
disable_timer                                     ..//drivers/timer/timer.o
dt                                                ..//utils/multi-steppers/multi-steppers.o
dt_convert_hms(DT_HMS, unsigned long)             ..//utils/delay_timer/delay_timer.o
dt_get_delay(int)                                 ..//utils/delay_timer/delay_timer.o
dt_get_hms(unsigned long, unsigned long)          ..//utils/delay_timer/delay_timer.o
dt_init()                                         ..//utils/delay_timer/delay_timer.o
                                                  ..//PHY/main.o
dt_is_timeup(int)                                 ..//utils/delay_timer/delay_timer.o
                                                  ..//PHY/state_machines/SM_Operation.o
                                                  ..//PHY/main.o
dt_is_timeup_with_enable(int)                     ..//utils/delay_timer/delay_timer.o
dt_reset(int)                                     ..//utils/delay_timer/delay_timer.o
                                                  ..//PHY/state_machines/SM_Operation.o
                                                  ..//PHY/main.o
dt_set_delay(int, unsigned long)                  ..//utils/delay_timer/delay_timer.o
                                                  ..//PHY/state_machines/SM_Operation.o
                                                  ..//PHY/main.o
dt_start(int)                                     ..//utils/delay_timer/delay_timer.o
dt_stop(int)                                      ..//utils/delay_timer/delay_timer.o
dt_time_left(int)                                 ..//utils/delay_timer/delay_timer.o
dt_timeup_reset(int)                              ..//utils/delay_timer/delay_timer.o
dtns                                              ..//utils/multi-steppers/multi-steppers.o
ecvtbuf                                           c:/program files (x86)/codesourcery/sourcery g++ lite/bin/../lib/gcc/arm-none-eabi/4.4.1/../../../../arm-none-eabi/lib/thumb2\libc.a(lib_a-ecvtbuf.o)
                                                  ..//utils/printf/ee_printf-arg.o
eepromStorage                                     ..//PHY/config_data.o
eepromStorage1                                    ..//PHY/config_data.o
eepromStorage2                                    ..//PHY/config_data.o
eepromStorage3                                    ..//PHY/config_data.o
enable_USB_interrupts                             ..//drivers/USB/intenable.o
enable_timer                                      ..//drivers/timer/timer.o
                                                  ..//PHY/interrupts.o
                                                  ..//utils/multi-steppers/multi-steppers.o
errno                                             c:/program files (x86)/codesourcery/sourcery g++ lite/bin/../lib/gcc/arm-none-eabi/4.4.1/../../../../arm-none-eabi/lib/thumb2\libc.a(lib_a-isattyr.o)
                                                  c:/program files (x86)/codesourcery/sourcery g++ lite/bin/../lib/gcc/arm-none-eabi/4.4.1/../../../../arm-none-eabi/lib/thumb2\libc.a(lib_a-fstatr.o)
                                                  c:/program files (x86)/codesourcery/sourcery g++ lite/bin/../lib/gcc/arm-none-eabi/4.4.1/../../../../arm-none-eabi/lib/thumb2\libc.a(lib_a-readr.o)
                                                  c:/program files (x86)/codesourcery/sourcery g++ lite/bin/../lib/gcc/arm-none-eabi/4.4.1/../../../../arm-none-eabi/lib/thumb2\libc.a(lib_a-lseekr.o)
                                                  c:/program files (x86)/codesourcery/sourcery g++ lite/bin/../lib/gcc/arm-none-eabi/4.4.1/../../../../arm-none-eabi/lib/thumb2\libc.a(lib_a-closer.o)
                                                  c:/program files (x86)/codesourcery/sourcery g++ lite/bin/../lib/gcc/arm-none-eabi/4.4.1/../../../../arm-none-eabi/lib/thumb2\libc.a(lib_a-writer.o)
                                                  c:/program files (x86)/codesourcery/sourcery g++ lite/bin/../lib/gcc/arm-none-eabi/4.4.1/../../../../arm-none-eabi/lib/thumb2\libc.a(lib_a-signalr.o)
                                                  c:/program files (x86)/codesourcery/sourcery g++ lite/bin/../lib/gcc/arm-none-eabi/4.4.1/../../../../arm-none-eabi/lib/thumb2\libc.a(lib_a-sbrkr.o)
                                                  c:/program files (x86)/codesourcery/sourcery g++ lite/bin/../lib/gcc/arm-none-eabi/4.4.1/../../../../arm-none-eabi/lib/thumb2\libc.a(lib_a-reent.o)
                                                  ..//Common/src/syscalls.o
exceptionResponse(modbus_t*, unsigned char)       ..//utils/modbus/SimpleModbusSlave_1769.o
execute_eeprom_write(int)                         ..//PHY/main.o
exit                                              c:/program files (x86)/codesourcery/sourcery g++ lite/bin/../lib/gcc/arm-none-eabi/4.4.1/../../../../arm-none-eabi/lib/thumb2\libcs3.a(start_c.o)
fast_io_update                                    ..//utils/input_output/input_output.o
fclose                                            c:/program files (x86)/codesourcery/sourcery g++ lite/bin/../lib/gcc/arm-none-eabi/4.4.1/../../../../arm-none-eabi/lib/thumb2\libc.a(lib_a-fclose.o)
                                                  c:/program files (x86)/codesourcery/sourcery g++ lite/bin/../lib/gcc/arm-none-eabi/4.4.1/../../../../arm-none-eabi/lib/thumb2\libc.a(lib_a-findfp.o)
fcvtbuf                                           c:/program files (x86)/codesourcery/sourcery g++ lite/bin/../lib/gcc/arm-none-eabi/4.4.1/../../../../arm-none-eabi/lib/thumb2\libc.a(lib_a-ecvtbuf.o)
                                                  ..//utils/printf/ee_printf-arg.o
few_ticks                                         ..//common/src/delay.o
fflush                                            c:/program files (x86)/codesourcery/sourcery g++ lite/bin/../lib/gcc/arm-none-eabi/4.4.1/../../../../arm-none-eabi/lib/thumb2\libc.a(lib_a-fflush.o)
fifo_avail                                        ..//drivers/USB/serial_fifo.o
                                                  ..//utils/usbSerial/usbSerial.o
fifo_free                                         ..//drivers/USB/serial_fifo.o
                                                  ..//utils/usbSerial/usbSerial.o
fifo_get                                          ..//drivers/USB/serial_fifo.o
                                                  ..//utils/usbSerial/usbSerial.o
fifo_init                                         ..//drivers/USB/serial_fifo.o
                                                  ..//utils/usbSerial/usbSerial.o
fifo_put                                          ..//drivers/USB/serial_fifo.o
                                                  ..//utils/usbSerial/usbSerial.o
fixedData                                         ..//utils/modbus/modbus.o
flash_write_allowed                               ..//PHY/main.o
flash_write_now                                   ..//PHY/main.o
free                                              c:/program files (x86)/codesourcery/sourcery g++ lite/bin/../lib/gcc/arm-none-eabi/4.4.1/../../../../arm-none-eabi/lib/thumb2\libc.a(lib_a-malloc.o)
                                                  ..//common/src/mini_cpp.o
freqscale                                         ..//utils/multi-steppers/multi-steppers.o
fw_major_version                                  ..//PHY/main.o
                                                  ..//PHY/config_data.o
fw_minor_version                                  ..//PHY/main.o
                                                  ..//PHY/config_data.o
g_stepgen                                         ..//utils/multi-steppers/multi-steppers.o
getRegister(modbus_t*, int)                       ..//utils/modbus/SimpleModbusSlave_1769.o
getUartdata                                       ..//utils/modbus/modbus.o
                                                  ..//utils/modbus/SimpleModbusSlave_1769.o
get_heap_end                                      ..//Common/src/syscalls.o
get_stack_top                                     ..//Common/src/syscalls.o
holdingRegs                                       ..//PHY/main.o
holdingRegs_prev                                  ..//PHY/main.o
                                                  ..//utils/modbus/SimpleModbusSlave_1769.o
i2cEEPROM_read32                                  ..//utils/i2ceeprom/i2c_eeprom.o
                                                  ..//PHY/config_data.o
i2cEEPROM_read8                                   ..//utils/i2ceeprom/i2c_eeprom.o
                                                  ..//PHY/config_data.o
i2cEEPROM_write32                                 ..//utils/i2ceeprom/i2c_eeprom.o
                                                  ..//PHY/config_data.o
i2cEEPROM_write8                                  ..//utils/i2ceeprom/i2c_eeprom.o
                                                  ..//PHY/config_data.o
i2ctest_rd                                        ..//utils/i2ceeprom/i2c_eeprom.o
i2ctest_wr                                        ..//utils/i2ceeprom/i2c_eeprom.o
iap_blank_check                                   ..//drivers/IAP/iap_driver.o
iap_cmp                                           ..//drivers/IAP/iap_driver.o
iap_copy                                          ..//drivers/IAP/iap_driver.o
iap_erase                                         ..//drivers/IAP/iap_driver.o
iap_get_ptr                                       ..//drivers/IAP/iap_driver.o
iap_init                                          ..//drivers/IAP/iap_driver.o
                                                  ..//PHY/main.o
iap_read                                          ..//drivers/IAP/iap_driver.o
iap_read_id                                       ..//drivers/IAP/iap_driver.o
iap_read_serial                                   ..//drivers/IAP/iap_driver.o
iap_read_version                                  ..//drivers/IAP/iap_driver.o
iap_write                                         ..//drivers/IAP/iap_driver.o
incr                                              ..//utils/i2ceeprom/i2c.o
init_timer0                                       ..//drivers/timer/timer.o
init_timer0_freq                                  ..//drivers/timer/timer.o
                                                  ..//PHY/interrupts.o
                                                  ..//utils/multi-steppers/multi-steppers.o
init_timer0_mode_match                            ..//drivers/timer/timer.o
init_timer1                                       ..//drivers/timer/timer.o
init_timer1_freq                                  ..//drivers/timer/timer.o
                                                  ..//PHY/interrupts.o
                                                  ..//utils/multi-steppers/multi-steppers.o
init_timer1_mode_match                            ..//drivers/timer/timer.o
init_timer2                                       ..//drivers/timer/timer.o
init_timer2_freq                                  ..//drivers/timer/timer.o
                                                  ..//PHY/interrupts.o
                                                  ..//utils/multi-steppers/multi-steppers.o
init_timer2_mode_match                            ..//drivers/timer/timer.o
init_timer3                                       ..//drivers/timer/timer.o
init_timer3_freq                                  ..//drivers/timer/timer.o
                                                  ..//utils/modbus/SimpleModbusSlave_1769.o
                                                  ..//PHY/interrupts.o
init_timer3_mode_match                            ..//drivers/timer/timer.o
init_timers                                       ..//PHY/interrupts.o
                                                  ..//PHY/main.o
input_fall_debounce_time                          ..//PHY/main.o
                                                  ..//utils/input_output/input_output.o
input_fall_flag                                   ..//PHY/main.o
                                                  ..//utils/input_output/input_output.o
input_name                                        ..//utils/input_output/input_output.o
input_rise_debounce_time                          ..//PHY/main.o
                                                  ..//utils/input_output/input_output.o
input_rise_flag                                   ..//PHY/state_machines/SM_Operation.o
                                                  ..//PHY/main.o
                                                  ..//utils/input_output/input_output.o
input_state                                       ..//utils/input_output/input_output.o
input_value                                       ..//utils/input_output/input_output.o
io_configure                                      ..//utils/input_output/input_output.o
io_init                                           ..//utils/input_output/input_output.o
                                                  ..//PHY/main.o
io_input_pins                                     ..//utils/input_output/input_output.o
io_output_pins                                    ..//utils/input_output/input_output.o
io_read_input                                     ..//utils/input_output/input_output.o
io_set_output                                     ..//utils/input_output/input_output.o
                                                  ..//PHY/state_machines/SM_Operation.o
                                                  ..//PHY/main.o
io_update                                         ..//utils/input_output/input_output.o
                                                  ..//PHY/interrupts.o
iocon_cfg                                         ..//drivers/SPI/ssp_master.o
iodir_cfg                                         ..//drivers/SPI/ssp_master.o
iostate_off                                       ..//drivers/SPI/ssp_master.o
iostate_on                                        ..//drivers/SPI/ssp_master.o
localeconv                                        c:/program files (x86)/codesourcery/sourcery g++ lite/bin/../lib/gcc/arm-none-eabi/4.4.1/../../../../arm-none-eabi/lib/thumb2\libc.a(lib_a-locale.o)
main                                              ..//PHY/main.o
                                                  c:/program files (x86)/codesourcery/sourcery g++ lite/bin/../lib/gcc/arm-none-eabi/4.4.1/../../../../arm-none-eabi/lib/thumb2\libcs3.a(start_c.o)
malloc                                            c:/program files (x86)/codesourcery/sourcery g++ lite/bin/../lib/gcc/arm-none-eabi/4.4.1/../../../../arm-none-eabi/lib/thumb2\libc.a(lib_a-malloc.o)
                                                  c:/program files (x86)/codesourcery/sourcery g++ lite/bin/../lib/gcc/arm-none-eabi/4.4.1/../../../../arm-none-eabi/lib/thumb2\libc.a(lib_a-dtoa.o)
                                                  c:/program files (x86)/codesourcery/sourcery g++ lite/bin/../lib/gcc/arm-none-eabi/4.4.1/../../../../arm-none-eabi/lib/thumb2\libc.a(lib_a-mprec.o)
                                                  ..//common/src/mini_cpp.o
memchr                                            c:/program files (x86)/codesourcery/sourcery g++ lite/bin/../lib/gcc/arm-none-eabi/4.4.1/../../../../arm-none-eabi/lib/thumb2\libc.a(lib_a-memchr.o)
                                                  c:/program files (x86)/codesourcery/sourcery g++ lite/bin/../lib/gcc/arm-none-eabi/4.4.1/../../../../arm-none-eabi/lib/thumb2\libc.a(lib_a-svfprintf.o)
                                                  c:/program files (x86)/codesourcery/sourcery g++ lite/bin/../lib/gcc/arm-none-eabi/4.4.1/../../../../arm-none-eabi/lib/thumb2\libc.a(lib_a-fvwrite.o)
memcmp                                            c:/program files (x86)/codesourcery/sourcery g++ lite/bin/../lib/gcc/arm-none-eabi/4.4.1/../../../../arm-none-eabi/lib/thumb2\libc.a(lib_a-memcmp.o)
                                                  ..//drivers/IAP/iap_driver.o
memcpy                                            c:/program files (x86)/codesourcery/sourcery g++ lite/bin/../lib/gcc/arm-none-eabi/4.4.1/../../../../arm-none-eabi/lib/thumb2\libc.a(lib_a-memcpy.o)
                                                  c:/program files (x86)/codesourcery/sourcery g++ lite/bin/../lib/gcc/arm-none-eabi/4.4.1/../../../../arm-none-eabi/lib/thumb2\libc.a(lib_a-svfprintf.o)
                                                  c:/program files (x86)/codesourcery/sourcery g++ lite/bin/../lib/gcc/arm-none-eabi/4.4.1/../../../../arm-none-eabi/lib/thumb2\libc.a(lib_a-fvwrite.o)
                                                  c:/program files (x86)/codesourcery/sourcery g++ lite/bin/../lib/gcc/arm-none-eabi/4.4.1/../../../../arm-none-eabi/lib/thumb2\libc.a(lib_a-dtoa.o)
                                                  c:/program files (x86)/codesourcery/sourcery g++ lite/bin/../lib/gcc/arm-none-eabi/4.4.1/../../../../arm-none-eabi/lib/thumb2\libc.a(lib_a-mprec.o)
                                                  ..//PHY/config_data.o
                                                  ..//utils/i2ceeprom/i2c_eeprom.o
                                                  ..//drivers/IAP/iap_driver.o
memmove                                           c:/program files (x86)/codesourcery/sourcery g++ lite/bin/../lib/gcc/arm-none-eabi/4.4.1/../../../../arm-none-eabi/lib/thumb2\libc.a(lib_a-memmove.o)
                                                  c:/program files (x86)/codesourcery/sourcery g++ lite/bin/../lib/gcc/arm-none-eabi/4.4.1/../../../../arm-none-eabi/lib/thumb2\libc.a(lib_a-svfprintf.o)
                                                  c:/program files (x86)/codesourcery/sourcery g++ lite/bin/../lib/gcc/arm-none-eabi/4.4.1/../../../../arm-none-eabi/lib/thumb2\libc.a(lib_a-fvwrite.o)
                                                  c:/program files (x86)/codesourcery/sourcery g++ lite/bin/../lib/gcc/arm-none-eabi/4.4.1/../../../../arm-none-eabi/lib/thumb2\libc.a(lib_a-reallocr.o)
memset                                            c:/program files (x86)/codesourcery/sourcery g++ lite/bin/../lib/gcc/arm-none-eabi/4.4.1/../../../../arm-none-eabi/lib/thumb2\libc.a(lib_a-memset.o)
                                                  c:/program files (x86)/codesourcery/sourcery g++ lite/bin/../lib/gcc/arm-none-eabi/4.4.1/../../../../arm-none-eabi/lib/thumb2\libc.a(lib_a-findfp.o)
                                                  c:/program files (x86)/codesourcery/sourcery g++ lite/bin/../lib/gcc/arm-none-eabi/4.4.1/../../../../arm-none-eabi/lib/thumb2\libc.a(lib_a-callocr.o)
                                                  ..//PHY/config_data.o
                                                  ..//drivers/IAP/iap_driver.o
modInit                                           ..//utils/modbus/modbus.o
                                                  ..//utils/usbSerial/usbSerial.o
                                                  ..//drivers/UART/uart.o
modUSB_init                                       ..//utils/usbSerial/usbSerial.o
modbus2                                           ..//PHY/interrupts.o
                                                  ..//drivers/UART/uart.o
modbusUSB                                         ..//PHY/main.o
                                                  ..//PHY/interrupts.o
                                                  ..//utils/usbSerial/usbSerial.o
modbus_configure(modbus_t*, long, int, unsigned int, unsigned int*) ..//utils/modbus/SimpleModbusSlave_1769.o
                                                  ..//PHY/main.o
modbus_data_complete                              ..//utils/multi-steppers/multi-steppers.o
modbus_exception_handler(int)                     ..//PHY/main.o
modbus_retVal                                     ..//PHY/main.o
modbus_update                                     ..//utils/modbus/SimpleModbusSlave_1769.o
                                                  ..//PHY/main.o
my_delay(long)                                    ..//utils/delay_timer/delay_timer.o
operator delete(void*)                            ..//common/src/mini_cpp.o
                                                  ..//PHY/state_machines/SM_Operation.o
                                                  ..//utils/state_machine/state_machine.o
                                                  ..//PHY/main.o
operator new(unsigned int)                        ..//common/src/mini_cpp.o
operator new[](unsigned int)                      ..//common/src/mini_cpp.o
parity_bit                                        ..//PHY/main.o
periodfp                                          ..//utils/multi-steppers/multi-steppers.o
periodns                                          ..//utils/multi-steppers/multi-steppers.o
preset_enable                                     ..//drivers/UART/uart.o
print_profiler_data                               ..//utils/multi-steppers/multi-steppers.o
printf                                            ..//utils/printf/ee_printf-arg.o
                                                  ..//PHY/config_data.o
                                                  ..//PHY/main.o
                                                  ..//utils/usbSerial/usbSerial.o
                                                  ..//utils/input_output/input_output.o
                                                  ..//drivers/IAP/iap_driver.o
                                                  ..//drivers/UART/uart.o
puts                                              c:/program files (x86)/codesourcery/sourcery g++ lite/bin/../lib/gcc/arm-none-eabi/4.4.1/../../../../arm-none-eabi/lib/thumb2\libc.a(lib_a-puts.o)
                                                  ..//PHY/config_data.o
                                                  ..//drivers/IAP/iap_driver.o
raise                                             c:/program files (x86)/codesourcery/sourcery g++ lite/bin/../lib/gcc/arm-none-eabi/4.4.1/../../../../arm-none-eabi/lib/thumb2\libc.a(lib_a-signal.o)
                                                  c:/program files (x86)/codesourcery/sourcery g++ lite/bin/../lib/gcc/arm-none-eabi/4.4.1/../../../../arm-none-eabi/lib/thumb2\libc.a(lib_a-abort.o)
read_Sequence_from_EEPROM(char*, int, int)        ..//PHY/config_data.o
read_config_data()                                ..//PHY/config_data.o
                                                  ..//PHY/main.o
read_config_version()                             ..//PHY/config_data.o
read_config_version(unsigned char&, unsigned char&) ..//PHY/config_data.o
                                                  ..//PHY/main.o
read_objects_eeprom(short, void*, int)            ..//PHY/config_data.o
recip_dt                                          ..//utils/multi-steppers/multi-steppers.o
reg_count                                         ..//utils/modbus/SimpleModbusSlave_1769.o
reset_timer                                       ..//drivers/timer/timer.o
                                                  ..//PHY/main.o
ring_clear                                        ..//utils/ring_buffer/ring.o
                                                  ..//PHY/interrupts.o
                                                  ..//drivers/UART/uart.o
ring_get_capacity                                 ..//utils/ring_buffer/ring.o
ring_getc                                         ..//utils/ring_buffer/ring.o
                                                  ..//utils/usbSerial/usbSerial.o
                                                  ..//drivers/UART/uart.o
ring_init                                         ..//utils/ring_buffer/ring.o
                                                  ..//utils/usbSerial/usbSerial.o
                                                  ..//drivers/UART/uart.o
ring_is_empty                                     ..//utils/ring_buffer/ring.o
                                                  ..//utils/usbSerial/usbSerial.o
                                                  ..//drivers/UART/uart.o
ring_is_full                                      ..//utils/ring_buffer/ring.o
                                                  ..//drivers/UART/uart.o
ring_putc                                         ..//utils/ring_buffer/ring.o
                                                  ..//utils/modbus/modbus.o
                                                  ..//drivers/UART/uart.o
ring_rx0                                          ..//drivers/UART/uart.o
ring_rx2                                          ..//drivers/UART/uart.o
ring_rx3                                          ..//drivers/UART/uart.o
ring_rxUSB                                        ..//utils/usbSerial/usbSerial.o
ring_slaveID                                      ..//utils/multi-steppers/multi-steppers.o
ring_tx2                                          ..//drivers/UART/uart.o
ring_tx3                                          ..//drivers/UART/uart.o
sendPacket(modbus_t*, unsigned char)              ..//utils/modbus/SimpleModbusSlave_1769.o
setRegister(modbus_t*, int, int)                  ..//utils/modbus/SimpleModbusSlave_1769.o
set_holding_registers_values                      ..//PHY/main.o
                                                  ..//utils/modbus/SimpleModbusSlave_1769.o
set_holding_registers_values_accel_table(int, int) ..//PHY/main.o
                                                  ..//utils/modbus/SimpleModbusSlave_1769.o
setlocale                                         c:/program files (x86)/codesourcery/sourcery g++ lite/bin/../lib/gcc/arm-none-eabi/4.4.1/../../../../arm-none-eabi/lib/thumb2\libc.a(lib_a-locale.o)
signal                                            c:/program files (x86)/codesourcery/sourcery g++ lite/bin/../lib/gcc/arm-none-eabi/4.4.1/../../../../arm-none-eabi/lib/thumb2\libc.a(lib_a-signal.o)
slave_id_select                                   ..//PHY/main.o
sm_operation                                      ..//PHY/main.o
sprintf                                           ..//utils/printf/ee_printf-arg.o
ssp_master_init                                   ..//drivers/SPI/ssp_master.o
sspreadbuf                                        ..//drivers/SPI/ssp_master.o
start_state_machine()                             ..//PHY/main.o
start_timers                                      ..//PHY/interrupts.o
                                                  ..//PHY/main.o
stepper_get_cur_pos                               ..//utils/multi-steppers/multi-steppers.o
stepper_get_final_pos                             ..//utils/multi-steppers/multi-steppers.o
stepper_get_max_acc                               ..//utils/multi-steppers/multi-steppers.o
stepper_get_max_vel                               ..//utils/multi-steppers/multi-steppers.o
stepper_get_running_motor                         ..//utils/multi-steppers/multi-steppers.o
stepper_get_running_motors                        ..//utils/multi-steppers/multi-steppers.o
stepper_init                                      ..//utils/multi-steppers/multi-steppers.o
                                                  ..//PHY/main.o
stepper_init_all_profilers                        ..//utils/multi-steppers/multi-steppers.o
stepper_init_profiler                             ..//utils/multi-steppers/multi-steppers.o
stepper_init_pulse_generator                      ..//utils/multi-steppers/multi-steppers.o
stepper_init_pulse_generator_single_axis          ..//utils/multi-steppers/multi-steppers.o
stepper_init_timers                               ..//utils/multi-steppers/multi-steppers.o
stepper_make_pulses                               ..//utils/multi-steppers/multi-steppers.o
stepper_move_motor                                ..//utils/multi-steppers/multi-steppers.o
stepper_next_position                             ..//utils/multi-steppers/multi-steppers.o
stepper_offset_inc                                ..//utils/multi-steppers/multi-steppers.o
stepper_reset_axis                                ..//utils/multi-steppers/multi-steppers.o
stepper_set_curr_pos                              ..//utils/multi-steppers/multi-steppers.o
stepper_set_final_pos                             ..//utils/multi-steppers/multi-steppers.o
                                                  ..//PHY/main.o
stepper_set_new_amax                              ..//utils/multi-steppers/multi-steppers.o
stepper_set_new_de_max                            ..//utils/multi-steppers/multi-steppers.o
stepper_set_new_profile                           ..//utils/multi-steppers/multi-steppers.o
                                                  ..//PHY/main.o
stepper_set_new_profile_ainv                      ..//utils/multi-steppers/multi-steppers.o
stepper_set_new_vmax                              ..//utils/multi-steppers/multi-steppers.o
stepper_steps                                     ..//utils/multi-steppers/multi-steppers.o
stepper_stop_distance                             ..//utils/multi-steppers/multi-steppers.o
stepper_stop_motor                                ..//utils/multi-steppers/multi-steppers.o
                                                  ..//PHY/main.o
stepper_stop_synchro_motor                        ..//utils/multi-steppers/multi-steppers.o
stepper_update_freq                               ..//utils/multi-steppers/multi-steppers.o
                                                  ..//PHY/main.o
stop_bit                                          ..//PHY/main.o
stop_state_machine()                              ..//PHY/main.o
storeRes                                          ..//PHY/main.o
strcat                                            c:/program files (x86)/codesourcery/sourcery g++ lite/bin/../lib/gcc/arm-none-eabi/4.4.1/../../../../arm-none-eabi/lib/thumb2\libc.a(lib_a-strcat.o)
                                                  ..//PHY/config_data.o
strcmp                                            c:/program files (x86)/codesourcery/sourcery g++ lite/bin/../lib/gcc/arm-none-eabi/4.4.1/../../../../arm-none-eabi/lib/thumb2\libc.a(lib_a-strcmp.o)
                                                  c:/program files (x86)/codesourcery/sourcery g++ lite/bin/../lib/gcc/arm-none-eabi/4.4.1/../../../../arm-none-eabi/lib/thumb2\libc.a(lib_a-locale.o)
strcpy                                            c:/program files (x86)/codesourcery/sourcery g++ lite/bin/../lib/gcc/arm-none-eabi/4.4.1/../../../../arm-none-eabi/lib/thumb2\libc.a(lib_a-strcpy.o)
                                                  c:/program files (x86)/codesourcery/sourcery g++ lite/bin/../lib/gcc/arm-none-eabi/4.4.1/../../../../arm-none-eabi/lib/thumb2\libc.a(lib_a-strcat.o)
                                                  c:/program files (x86)/codesourcery/sourcery g++ lite/bin/../lib/gcc/arm-none-eabi/4.4.1/../../../../arm-none-eabi/lib/thumb2\libc.a(lib_a-ecvtbuf.o)
strlen                                            c:/program files (x86)/codesourcery/sourcery g++ lite/bin/../lib/gcc/arm-none-eabi/4.4.1/../../../../arm-none-eabi/lib/thumb2\libc.a(lib_a-strlen.o)
                                                  c:/program files (x86)/codesourcery/sourcery g++ lite/bin/../lib/gcc/arm-none-eabi/4.4.1/../../../../arm-none-eabi/lib/thumb2\libc.a(lib_a-svfprintf.o)
                                                  c:/program files (x86)/codesourcery/sourcery g++ lite/bin/../lib/gcc/arm-none-eabi/4.4.1/../../../../arm-none-eabi/lib/thumb2\libc.a(lib_a-puts.o)
                                                  ..//utils/i2ceeprom/i2c_eeprom.o
switch_state_max_fall_count                       ..//utils/input_output/input_output.o
switch_state_max_rise_count                       ..//utils/input_output/input_output.o
take_samples                                      ..//PHY/main.o
temp                                              ..//PHY/main.o
trig_update_freq                                  ..//utils/multi-steppers/multi-steppers.o
uart2TxFlush                                      ..//drivers/UART/uart.o
uart2TxRxEnable                                   ..//drivers/UART/uart.o
                                                  ..//utils/modbus/SimpleModbusSlave_1769.o
uart3TxFlush                                      ..//drivers/UART/uart.o
uart3TxRxEnable                                   ..//drivers/UART/uart.o
uart_enable_accumulator                           ..//drivers/UART/uart.o
uart_send_char                                    ..//utils/printf/ee_printf-arg.o
uart_set_divisors                                 ..//common/src/lpc17xx_uart.o
                                                  ..//drivers/UART/uart.o
update_sm_operation_every_1ms                     ..//PHY/main.o
                                                  ..//PHY/interrupts.o
usbSerialInit                                     ..//utils/usbSerial/usbSerial.o
                                                  ..//PHY/main.o
vsprintf                                          c:/program files (x86)/codesourcery/sourcery g++ lite/bin/../lib/gcc/arm-none-eabi/4.4.1/../../../../arm-none-eabi/lib/thumb2\libc.a(lib_a-vsprintf.o)
                                                  ..//utils/printf/ee_printf-arg.o
vtable for SM_OPERATION                           ..//PHY/state_machines/SM_Operation.o
                                                  ..//PHY/main.o
vtable for State_Machine                          ..//utils/state_machine/state_machine.o
                                                  ..//PHY/state_machines/SM_Operation.o
                                                  ..//PHY/main.o
write_Sequence_to_EEPROM(char*, int, int)         ..//PHY/config_data.o
write_config_data()                               ..//PHY/config_data.o
                                                  ..//PHY/main.o
write_config_data_table_1()                       ..//PHY/config_data.o
                                                  ..//PHY/main.o
write_config_data_table_2()                       ..//PHY/config_data.o
                                                  ..//PHY/main.o
write_config_data_table_3()                       ..//PHY/config_data.o
                                                  ..//PHY/main.o
write_objects_eeprom(short, void*, int)           ..//PHY/config_data.o
xatoi                                             ..//utils/usbSerial/usbSerial.o
xitoa                                             ..//utils/usbSerial/usbSerial.o
